
DualStepperController.elf:     file format elf32-avr

Sections:
Idx Name          Size      VMA       LMA       File off  Algn
  0 .data         0000006e  00800100  0000309c  00003130  2**0
                  CONTENTS, ALLOC, LOAD, DATA
  1 .text         0000309c  00000000  00000000  00000094  2**1
                  CONTENTS, ALLOC, LOAD, READONLY, CODE
  2 .bss          000000de  0080016e  0080016e  0000319e  2**0
                  ALLOC
  3 .comment      0000005c  00000000  00000000  0000319e  2**0
                  CONTENTS, READONLY
  4 .note.gnu.avr.deviceinfo 00000040  00000000  00000000  000031fc  2**2
                  CONTENTS, READONLY
  5 .debug_aranges 00000450  00000000  00000000  00003240  2**3
                  CONTENTS, READONLY, DEBUGGING
  6 .debug_info   00008068  00000000  00000000  00003690  2**0
                  CONTENTS, READONLY, DEBUGGING
  7 .debug_abbrev 000024ee  00000000  00000000  0000b6f8  2**0
                  CONTENTS, READONLY, DEBUGGING
  8 .debug_line   0000cac9  00000000  00000000  0000dbe6  2**0
                  CONTENTS, READONLY, DEBUGGING
  9 .debug_frame  00000dd0  00000000  00000000  0001a6b0  2**2
                  CONTENTS, READONLY, DEBUGGING
 10 .debug_str    000186ee  00000000  00000000  0001b480  2**0
                  CONTENTS, READONLY, DEBUGGING
 11 .debug_loc    00004d04  00000000  00000000  00033b6e  2**0
                  CONTENTS, READONLY, DEBUGGING
 12 .debug_ranges 00000d60  00000000  00000000  00038872  2**0
                  CONTENTS, READONLY, DEBUGGING
 13 .debug_macro  000088c7  00000000  00000000  000395d2  2**0
                  CONTENTS, READONLY, DEBUGGING

Disassembly of section .text:

00000000 <__vectors>:
       0:	c3 c0       	rjmp	.+390    	; 0x188 <__ctors_end>
       2:	00 00       	nop
       4:	de c0       	rjmp	.+444    	; 0x1c2 <__bad_interrupt>
       6:	00 00       	nop
       8:	dc c0       	rjmp	.+440    	; 0x1c2 <__bad_interrupt>
       a:	00 00       	nop
       c:	da c0       	rjmp	.+436    	; 0x1c2 <__bad_interrupt>
       e:	00 00       	nop
      10:	d8 c0       	rjmp	.+432    	; 0x1c2 <__bad_interrupt>
      12:	00 00       	nop
      14:	d6 c0       	rjmp	.+428    	; 0x1c2 <__bad_interrupt>
      16:	00 00       	nop
      18:	d4 c0       	rjmp	.+424    	; 0x1c2 <__bad_interrupt>
      1a:	00 00       	nop
      1c:	d2 c0       	rjmp	.+420    	; 0x1c2 <__bad_interrupt>
      1e:	00 00       	nop
      20:	d0 c0       	rjmp	.+416    	; 0x1c2 <__bad_interrupt>
      22:	00 00       	nop
      24:	ce c0       	rjmp	.+412    	; 0x1c2 <__bad_interrupt>
      26:	00 00       	nop
      28:	0c 94 44 0e 	jmp	0x1c88	; 0x1c88 <__vector_10>
      2c:	0c 94 09 0f 	jmp	0x1e12	; 0x1e12 <__vector_11>
      30:	c8 c0       	rjmp	.+400    	; 0x1c2 <__bad_interrupt>
      32:	00 00       	nop
      34:	c6 c0       	rjmp	.+396    	; 0x1c2 <__bad_interrupt>
      36:	00 00       	nop
      38:	c4 c0       	rjmp	.+392    	; 0x1c2 <__bad_interrupt>
      3a:	00 00       	nop
      3c:	c2 c0       	rjmp	.+388    	; 0x1c2 <__bad_interrupt>
      3e:	00 00       	nop
      40:	c0 c0       	rjmp	.+384    	; 0x1c2 <__bad_interrupt>
      42:	00 00       	nop
      44:	0c 94 69 09 	jmp	0x12d2	; 0x12d2 <__vector_17>
      48:	bc c0       	rjmp	.+376    	; 0x1c2 <__bad_interrupt>
      4a:	00 00       	nop
      4c:	ba c0       	rjmp	.+372    	; 0x1c2 <__bad_interrupt>
      4e:	00 00       	nop
      50:	b8 c0       	rjmp	.+368    	; 0x1c2 <__bad_interrupt>
      52:	00 00       	nop
      54:	b6 c0       	rjmp	.+364    	; 0x1c2 <__bad_interrupt>
      56:	00 00       	nop
      58:	b4 c0       	rjmp	.+360    	; 0x1c2 <__bad_interrupt>
      5a:	00 00       	nop
      5c:	b2 c0       	rjmp	.+356    	; 0x1c2 <__bad_interrupt>
      5e:	00 00       	nop
      60:	b0 c0       	rjmp	.+352    	; 0x1c2 <__bad_interrupt>
      62:	00 00       	nop
      64:	ae c0       	rjmp	.+348    	; 0x1c2 <__bad_interrupt>
      66:	00 00       	nop
      68:	ac c0       	rjmp	.+344    	; 0x1c2 <__bad_interrupt>
      6a:	00 00       	nop
      6c:	aa c0       	rjmp	.+340    	; 0x1c2 <__bad_interrupt>
      6e:	00 00       	nop
      70:	a8 c0       	rjmp	.+336    	; 0x1c2 <__bad_interrupt>
      72:	00 00       	nop
      74:	a6 c0       	rjmp	.+332    	; 0x1c2 <__bad_interrupt>
      76:	00 00       	nop
      78:	a4 c0       	rjmp	.+328    	; 0x1c2 <__bad_interrupt>
      7a:	00 00       	nop
      7c:	a2 c0       	rjmp	.+324    	; 0x1c2 <__bad_interrupt>
      7e:	00 00       	nop
      80:	a0 c0       	rjmp	.+320    	; 0x1c2 <__bad_interrupt>
      82:	00 00       	nop
      84:	9e c0       	rjmp	.+316    	; 0x1c2 <__bad_interrupt>
      86:	00 00       	nop
      88:	9c c0       	rjmp	.+312    	; 0x1c2 <__bad_interrupt>
      8a:	00 00       	nop
      8c:	9a c0       	rjmp	.+308    	; 0x1c2 <__bad_interrupt>
      8e:	00 00       	nop
      90:	98 c0       	rjmp	.+304    	; 0x1c2 <__bad_interrupt>
      92:	00 00       	nop
      94:	96 c0       	rjmp	.+300    	; 0x1c2 <__bad_interrupt>
      96:	00 00       	nop
      98:	94 c0       	rjmp	.+296    	; 0x1c2 <__bad_interrupt>
      9a:	00 00       	nop
      9c:	92 c0       	rjmp	.+292    	; 0x1c2 <__bad_interrupt>
      9e:	00 00       	nop
      a0:	90 c0       	rjmp	.+288    	; 0x1c2 <__bad_interrupt>
      a2:	00 00       	nop
      a4:	8e c0       	rjmp	.+284    	; 0x1c2 <__bad_interrupt>
      a6:	00 00       	nop
      a8:	8c c0       	rjmp	.+280    	; 0x1c2 <__bad_interrupt>
	...

000000ac <__trampolines_end>:
      ac:	4e 41       	sbci	r20, 0x1E	; 30
      ae:	4e 49       	Address 0x000000ae is out of bounds.
.word	0xffff	; ????

000000af <pstr_inity>:
      af:	49 4e 49 54 59                                      INITY

000000b4 <pstr_inf>:
      b4:	49 4e 46                                            INF

000000b7 <pwr_m10>:
      b7:	cd cc cc 3d 0a d7 23 3c 17 b7 d1 38 77 cc 2b 32     ...=..#<...8w.+2
      c7:	95 95 e6 24 1f b1 4f 0a                             ...$..O.

000000cf <pwr_p10>:
      cf:	00 00 20 41 00 00 c8 42 00 40 1c 46 20 bc be 4c     .. A...B.@.F ..L
      df:	ca 1b 0e 5a ae c5 9d 74                             ...Z...t

000000e7 <ProductString>:
      e7:	2c 03 44 00 75 00 61 00 6c 00 53 00 74 00 65 00     ,.D.u.a.l.S.t.e.
      f7:	70 00 70 00 65 00 72 00 43 00 6f 00 6e 00 74 00     p.p.e.r.C.o.n.t.
     107:	72 00 6f 00 6c 00 6c 00 65 00 72 00 00 00           r.o.l.l.e.r...

00000115 <ManufacturerString>:
     115:	1c 03 4d 00 69 00 63 00 68 00 61 00 65 00 6c 00     ..M.i.c.h.a.e.l.
     125:	20 00 4c 00 6f 00 6f 00 73 00 65 00 00 00            .L.o.o.s.e...

00000133 <LanguageString>:
     133:	04 03 09 04                                         ....

00000137 <ConfigurationDescriptor>:
     137:	09 02 3e 00 02 01 00 c0 32 09 04 00 00 01 02 02     ..>.....2.......
     147:	01 00 05 24 00 10 01 04 24 02 06 05 24 06 00 01     ...$....$...$...
     157:	07 05 82 03 08 00 ff 09 04 01 00 02 0a 00 00 00     ................
     167:	07 05 04 02 10 00 05 07 05 83 02 10 00 05           ..............

00000175 <DeviceDescriptor>:
     175:	12 01 10 01 02 00 00 08 29 10 a1 42 01 00 01 02     ........)..B....
     185:	dc 01 00                                            ...

00000188 <__ctors_end>:
     188:	11 24       	eor	r1, r1
     18a:	1f be       	out	0x3f, r1	; 63
     18c:	cf ef       	ldi	r28, 0xFF	; 255
     18e:	da e0       	ldi	r29, 0x0A	; 10
     190:	de bf       	out	0x3e, r29	; 62
     192:	cd bf       	out	0x3d, r28	; 61

00000194 <__do_copy_data>:
     194:	11 e0       	ldi	r17, 0x01	; 1
     196:	a0 e0       	ldi	r26, 0x00	; 0
     198:	b1 e0       	ldi	r27, 0x01	; 1
     19a:	ec e9       	ldi	r30, 0x9C	; 156
     19c:	f0 e3       	ldi	r31, 0x30	; 48
     19e:	02 c0       	rjmp	.+4      	; 0x1a4 <__do_copy_data+0x10>
     1a0:	05 90       	lpm	r0, Z+
     1a2:	0d 92       	st	X+, r0
     1a4:	ae 36       	cpi	r26, 0x6E	; 110
     1a6:	b1 07       	cpc	r27, r17
     1a8:	d9 f7       	brne	.-10     	; 0x1a0 <__do_copy_data+0xc>

000001aa <__do_clear_bss>:
     1aa:	22 e0       	ldi	r18, 0x02	; 2
     1ac:	ae e6       	ldi	r26, 0x6E	; 110
     1ae:	b1 e0       	ldi	r27, 0x01	; 1
     1b0:	01 c0       	rjmp	.+2      	; 0x1b4 <.do_clear_bss_start>

000001b2 <.do_clear_bss_loop>:
     1b2:	1d 92       	st	X+, r1

000001b4 <.do_clear_bss_start>:
     1b4:	ac 34       	cpi	r26, 0x4C	; 76
     1b6:	b2 07       	cpc	r27, r18
     1b8:	e1 f7       	brne	.-8      	; 0x1b2 <.do_clear_bss_loop>
     1ba:	0e 94 ed 10 	call	0x21da	; 0x21da <main>
     1be:	0c 94 4c 18 	jmp	0x3098	; 0x3098 <_exit>

000001c2 <__bad_interrupt>:
     1c2:	1e cf       	rjmp	.-452    	; 0x0 <__vectors>

000001c4 <putCDCtoBuffer>:
*  Author: Waxrek
*/

#include "headers.h"

void putCDCtoBuffer(USB_ClassInfo_CDC_Device_t* pInterface, RingBuffer_t* pBuffer){
     1c4:	cf 93       	push	r28
     1c6:	df 93       	push	r29
     1c8:	fb 01       	movw	r30, r22
			static inline uint_reg_t GetGlobalInterruptMask(void)
			{
				GCC_MEMORY_BARRIER();

				#if (ARCH == ARCH_AVR8)
				return SREG;
     1ca:	2f b7       	in	r18, 0x3f	; 63
			static inline void GlobalInterruptDisable(void)
			{
				GCC_MEMORY_BARRIER();

				#if (ARCH == ARCH_AVR8)
				cli();
     1cc:	f8 94       	cli
			uint16_t Count;

			uint_reg_t CurrentGlobalInt = GetGlobalInterruptMask();
			GlobalInterruptDisable();

			Count = Buffer->Count;
     1ce:	42 85       	ldd	r20, Z+10	; 0x0a
     1d0:	53 85       	ldd	r21, Z+11	; 0x0b
			static inline void SetGlobalInterruptMask(const uint_reg_t GlobalIntState)
			{
				GCC_MEMORY_BARRIER();

				#if (ARCH == ARCH_AVR8)
				SREG = GlobalIntState;
     1d2:	2f bf       	out	0x3f, r18	; 63

	/* Only try to read in bytes from the CDC interface if the transmit buffer is not full */
	if (!(RingBuffer_IsFull(pBuffer)))
     1d4:	20 85       	ldd	r18, Z+8	; 0x08
     1d6:	31 85       	ldd	r19, Z+9	; 0x09
     1d8:	42 17       	cp	r20, r18
     1da:	53 07       	cpc	r21, r19
     1dc:	f9 f0       	breq	.+62     	; 0x21c <putCDCtoBuffer+0x58>
     1de:	eb 01       	movw	r28, r22
	{
		int16_t ReceivedByte = CDC_Device_ReceiveByte(pInterface);
     1e0:	0e 94 86 0a 	call	0x150c	; 0x150c <CDC_Device_ReceiveByte>
		if (!(ReceivedByte < 0)){
     1e4:	99 23       	and	r25, r25
     1e6:	d4 f0       	brlt	.+52     	; 0x21c <putCDCtoBuffer+0x58>
		static inline void RingBuffer_Insert(RingBuffer_t* Buffer,
		                                     const uint8_t Data) ATTR_NON_NULL_PTR_ARG(1);
		static inline void RingBuffer_Insert(RingBuffer_t* Buffer,
		                                     const uint8_t Data)
		{
			GCC_FORCE_POINTER_ACCESS(Buffer);
     1e8:	fe 01       	movw	r30, r28

			*Buffer->In = Data;
     1ea:	a0 81       	ld	r26, Z
     1ec:	b1 81       	ldd	r27, Z+1	; 0x01
     1ee:	8c 93       	st	X, r24

			if (++Buffer->In == Buffer->End)
     1f0:	80 81       	ld	r24, Z
     1f2:	91 81       	ldd	r25, Z+1	; 0x01
     1f4:	01 96       	adiw	r24, 0x01	; 1
     1f6:	91 83       	std	Z+1, r25	; 0x01
     1f8:	80 83       	st	Z, r24
     1fa:	26 81       	ldd	r18, Z+6	; 0x06
     1fc:	37 81       	ldd	r19, Z+7	; 0x07
     1fe:	82 17       	cp	r24, r18
     200:	93 07       	cpc	r25, r19
     202:	21 f4       	brne	.+8      	; 0x20c <putCDCtoBuffer+0x48>
			  Buffer->In = Buffer->Start;
     204:	84 81       	ldd	r24, Z+4	; 0x04
     206:	95 81       	ldd	r25, Z+5	; 0x05
     208:	91 83       	std	Z+1, r25	; 0x01
     20a:	80 83       	st	Z, r24
			static inline uint_reg_t GetGlobalInterruptMask(void)
			{
				GCC_MEMORY_BARRIER();

				#if (ARCH == ARCH_AVR8)
				return SREG;
     20c:	2f b7       	in	r18, 0x3f	; 63
			static inline void GlobalInterruptDisable(void)
			{
				GCC_MEMORY_BARRIER();

				#if (ARCH == ARCH_AVR8)
				cli();
     20e:	f8 94       	cli

			uint_reg_t CurrentGlobalInt = GetGlobalInterruptMask();
			GlobalInterruptDisable();

			Buffer->Count++;
     210:	82 85       	ldd	r24, Z+10	; 0x0a
     212:	93 85       	ldd	r25, Z+11	; 0x0b
     214:	01 96       	adiw	r24, 0x01	; 1
     216:	93 87       	std	Z+11, r25	; 0x0b
     218:	82 87       	std	Z+10, r24	; 0x0a
			static inline void SetGlobalInterruptMask(const uint_reg_t GlobalIntState)
			{
				GCC_MEMORY_BARRIER();

				#if (ARCH == ARCH_AVR8)
				SREG = GlobalIntState;
     21a:	2f bf       	out	0x3f, r18	; 63
			RingBuffer_Insert(pBuffer, ReceivedByte);
			//CDC_Device_SendByte(&VirtualSerial_CDC_Interface, ReceivedByte);
		}
		
	}
}
     21c:	df 91       	pop	r29
     21e:	cf 91       	pop	r28
     220:	08 95       	ret

00000222 <checkBufferForCommands>:
			static inline uint_reg_t GetGlobalInterruptMask(void)
			{
				GCC_MEMORY_BARRIER();

				#if (ARCH == ARCH_AVR8)
				return SREG;
     222:	8f b7       	in	r24, 0x3f	; 63
			static inline void GlobalInterruptDisable(void)
			{
				GCC_MEMORY_BARRIER();

				#if (ARCH == ARCH_AVR8)
				cli();
     224:	f8 94       	cli
			uint16_t Count;

			uint_reg_t CurrentGlobalInt = GetGlobalInterruptMask();
			GlobalInterruptDisable();

			Count = Buffer->Count;
     226:	db 01       	movw	r26, r22
     228:	1a 96       	adiw	r26, 0x0a	; 10
     22a:	4d 91       	ld	r20, X+
     22c:	5c 91       	ld	r21, X
     22e:	1b 97       	sbiw	r26, 0x0b	; 11
			static inline void SetGlobalInterruptMask(const uint_reg_t GlobalIntState)
			{
				GCC_MEMORY_BARRIER();

				#if (ARCH == ARCH_AVR8)
				SREG = GlobalIntState;
     230:	8f bf       	out	0x3f, r24	; 63

void checkBufferForCommands(USB_ClassInfo_CDC_Device_t* pInterface, RingBuffer_t* pBuffer){
	uint16_t BufferCount = RingBuffer_GetCount(pBuffer);
	//Clear Buffer when Command was executed
	if (BufferCount && commandState == CMD_STATE_EXECUTED){
     232:	41 15       	cp	r20, r1
     234:	51 05       	cpc	r21, r1
     236:	09 f4       	brne	.+2      	; 0x23a <checkBufferForCommands+0x18>
     238:	53 c0       	rjmp	.+166    	; 0x2e0 <checkBufferForCommands+0xbe>
     23a:	80 91 10 02 	lds	r24, 0x0210	; 0x800210 <commandState>
     23e:	81 11       	cpse	r24, r1
     240:	4a c0       	rjmp	.+148    	; 0x2d6 <checkBufferForCommands+0xb4>
		memset(&commandBuffer[0], 0, CMD_LEN_MAX+1);
     242:	e3 e0       	ldi	r30, 0x03	; 3
     244:	f2 e0       	ldi	r31, 0x02	; 2
     246:	8d e0       	ldi	r24, 0x0D	; 13
     248:	df 01       	movw	r26, r30
     24a:	1d 92       	st	X+, r1
     24c:	8a 95       	dec	r24
     24e:	e9 f7       	brne	.-6      	; 0x24a <checkBufferForCommands+0x28>
		pCommandBuffer = commandBuffer;
     250:	f0 93 14 02 	sts	0x0214, r31	; 0x800214 <pCommandBuffer+0x1>
     254:	e0 93 13 02 	sts	0x0213, r30	; 0x800213 <pCommandBuffer>
		commandState = CMD_STATE_RDY_TO_WRITE;
     258:	81 e0       	ldi	r24, 0x01	; 1
     25a:	80 93 10 02 	sts	0x0210, r24	; 0x800210 <commandState>
		 *  \return Next data element stored in the buffer.
		 */
		static inline uint8_t RingBuffer_Remove(RingBuffer_t* Buffer) ATTR_NON_NULL_PTR_ARG(1);
		static inline uint8_t RingBuffer_Remove(RingBuffer_t* Buffer)
		{
			GCC_FORCE_POINTER_ACCESS(Buffer);
     25e:	fb 01       	movw	r30, r22

			uint8_t Data = *Buffer->Out;
     260:	a2 81       	ldd	r26, Z+2	; 0x02
     262:	b3 81       	ldd	r27, Z+3	; 0x03
     264:	2d 91       	ld	r18, X+

			if (++Buffer->Out == Buffer->End)
     266:	b3 83       	std	Z+3, r27	; 0x03
     268:	a2 83       	std	Z+2, r26	; 0x02
     26a:	86 81       	ldd	r24, Z+6	; 0x06
     26c:	97 81       	ldd	r25, Z+7	; 0x07
     26e:	a8 17       	cp	r26, r24
     270:	b9 07       	cpc	r27, r25
     272:	21 f4       	brne	.+8      	; 0x27c <checkBufferForCommands+0x5a>
			  Buffer->Out = Buffer->Start;
     274:	84 81       	ldd	r24, Z+4	; 0x04
     276:	95 81       	ldd	r25, Z+5	; 0x05
     278:	93 83       	std	Z+3, r25	; 0x03
     27a:	82 83       	std	Z+2, r24	; 0x02
			static inline uint_reg_t GetGlobalInterruptMask(void)
			{
				GCC_MEMORY_BARRIER();

				#if (ARCH == ARCH_AVR8)
				return SREG;
     27c:	3f b7       	in	r19, 0x3f	; 63
			static inline void GlobalInterruptDisable(void)
			{
				GCC_MEMORY_BARRIER();

				#if (ARCH == ARCH_AVR8)
				cli();
     27e:	f8 94       	cli

			uint_reg_t CurrentGlobalInt = GetGlobalInterruptMask();
			GlobalInterruptDisable();

			Buffer->Count--;
     280:	82 85       	ldd	r24, Z+10	; 0x0a
     282:	93 85       	ldd	r25, Z+11	; 0x0b
     284:	01 97       	sbiw	r24, 0x01	; 1
     286:	93 87       	std	Z+11, r25	; 0x0b
     288:	82 87       	std	Z+10, r24	; 0x0a
			static inline void SetGlobalInterruptMask(const uint_reg_t GlobalIntState)
			{
				GCC_MEMORY_BARRIER();

				#if (ARCH == ARCH_AVR8)
				SREG = GlobalIntState;
     28a:	3f bf       	out	0x3f, r19	; 63
		while (BufferCount--)
		{
			// Dequeue the already sent byte from the buffer now we have confirmed that no transmission error occurred
			nextChar = (char)RingBuffer_Remove(pBuffer);
			//Byte akzeptieren wenn es sich nicht um ein cr oder lf handelt (terminierungszeichen) und der Befehlspuffer die maximale Länge nicht erreicht hat.
			if ((nextChar != 0x0A) && (nextChar != 0x0D) && ((pCommandBuffer - commandBuffer) < CMD_LEN_MAX)){
     28c:	2a 30       	cpi	r18, 0x0A	; 10
     28e:	b1 f0       	breq	.+44     	; 0x2bc <checkBufferForCommands+0x9a>
     290:	2d 30       	cpi	r18, 0x0D	; 13
     292:	a1 f0       	breq	.+40     	; 0x2bc <checkBufferForCommands+0x9a>
     294:	e0 91 13 02 	lds	r30, 0x0213	; 0x800213 <pCommandBuffer>
     298:	f0 91 14 02 	lds	r31, 0x0214	; 0x800214 <pCommandBuffer+0x1>
     29c:	cf 01       	movw	r24, r30
     29e:	83 50       	subi	r24, 0x03	; 3
     2a0:	92 40       	sbci	r25, 0x02	; 2
     2a2:	0c 97       	sbiw	r24, 0x0c	; 12
     2a4:	5c f4       	brge	.+22     	; 0x2bc <checkBufferForCommands+0x9a>
				*pCommandBuffer++ = nextChar;
     2a6:	cf 01       	movw	r24, r30
     2a8:	01 96       	adiw	r24, 0x01	; 1
     2aa:	90 93 14 02 	sts	0x0214, r25	; 0x800214 <pCommandBuffer+0x1>
     2ae:	80 93 13 02 	sts	0x0213, r24	; 0x800213 <pCommandBuffer>
     2b2:	20 83       	st	Z, r18
     2b4:	41 50       	subi	r20, 0x01	; 1
     2b6:	51 09       	sbc	r21, r1
	}
	
	if (BufferCount && commandState == CMD_STATE_RDY_TO_WRITE){
		
		char nextChar;
		while (BufferCount--)
     2b8:	91 f6       	brne	.-92     	; 0x25e <checkBufferForCommands+0x3c>
     2ba:	08 95       	ret
			if ((nextChar != 0x0A) && (nextChar != 0x0D) && ((pCommandBuffer - commandBuffer) < CMD_LEN_MAX)){
				*pCommandBuffer++ = nextChar;
			}
			//Only accept command if it contains anything
			else{
				if((pCommandBuffer - commandBuffer)>0)
     2bc:	80 91 13 02 	lds	r24, 0x0213	; 0x800213 <pCommandBuffer>
     2c0:	90 91 14 02 	lds	r25, 0x0214	; 0x800214 <pCommandBuffer+0x1>
     2c4:	83 50       	subi	r24, 0x03	; 3
     2c6:	92 40       	sbci	r25, 0x02	; 2
     2c8:	18 16       	cp	r1, r24
     2ca:	19 06       	cpc	r1, r25
     2cc:	4c f4       	brge	.+18     	; 0x2e0 <checkBufferForCommands+0xbe>
				commandState = CMD_STATE_RDY_TO_EXEC;
     2ce:	82 e0       	ldi	r24, 0x02	; 2
     2d0:	80 93 10 02 	sts	0x0210, r24	; 0x800210 <commandState>
				break;
			}
		}
	}
}
     2d4:	08 95       	ret
		memset(&commandBuffer[0], 0, CMD_LEN_MAX+1);
		pCommandBuffer = commandBuffer;
		commandState = CMD_STATE_RDY_TO_WRITE;
	}
	
	if (BufferCount && commandState == CMD_STATE_RDY_TO_WRITE){
     2d6:	80 91 10 02 	lds	r24, 0x0210	; 0x800210 <commandState>
     2da:	81 30       	cpi	r24, 0x01	; 1
     2dc:	09 f4       	brne	.+2      	; 0x2e0 <checkBufferForCommands+0xbe>
     2de:	bf cf       	rjmp	.-130    	; 0x25e <checkBufferForCommands+0x3c>
     2e0:	08 95       	ret

000002e2 <handleCommands>:
		}
	}
}


void handleCommands(USB_ClassInfo_CDC_Device_t* pInterface){
     2e2:	0f 93       	push	r16
     2e4:	1f 93       	push	r17
     2e6:	cf 93       	push	r28
     2e8:	df 93       	push	r29
     2ea:	cd b7       	in	r28, 0x3d	; 61
     2ec:	de b7       	in	r29, 0x3e	; 62
     2ee:	e0 97       	sbiw	r28, 0x30	; 48
     2f0:	0f b6       	in	r0, 0x3f	; 63
     2f2:	f8 94       	cli
     2f4:	de bf       	out	0x3e, r29	; 62
     2f6:	0f be       	out	0x3f, r0	; 63
     2f8:	cd bf       	out	0x3d, r28	; 61
     2fa:	9c 01       	movw	r18, r24
	if(commandState == CMD_STATE_RDY_TO_EXEC)
     2fc:	90 91 10 02 	lds	r25, 0x0210	; 0x800210 <commandState>
     300:	92 30       	cpi	r25, 0x02	; 2
     302:	09 f0       	breq	.+2      	; 0x306 <handleCommands+0x24>
     304:	3f c4       	rjmp	.+2174   	; 0xb84 <__stack+0x85>
     306:	89 01       	movw	r16, r18
	{
		char answerString[16] = "?";
     308:	8f e3       	ldi	r24, 0x3F	; 63
     30a:	90 e0       	ldi	r25, 0x00	; 0
     30c:	9a a3       	std	Y+34, r25	; 0x22
     30e:	89 a3       	std	Y+33, r24	; 0x21
     310:	fe 01       	movw	r30, r28
     312:	b3 96       	adiw	r30, 0x23	; 35
     314:	8e e0       	ldi	r24, 0x0E	; 14
     316:	df 01       	movw	r26, r30
     318:	1d 92       	st	X+, r1
     31a:	8a 95       	dec	r24
     31c:	e9 f7       	brne	.-6      	; 0x318 <handleCommands+0x36>
		nextChar = *pCommandBuffer++;
		}
		*/
		
		//Software-Reset
		if (((commandBuffer[0] == 'R') || (commandBuffer[0] == 'r'))&&((commandBuffer[1] == 'S') || (commandBuffer[1] == 's'))&&((commandBuffer[2] == 'T') || (commandBuffer[2] == 't'))){
     31e:	80 91 03 02 	lds	r24, 0x0203	; 0x800203 <commandBuffer>
     322:	8f 7d       	andi	r24, 0xDF	; 223
     324:	82 35       	cpi	r24, 0x52	; 82
     326:	a9 f4       	brne	.+42     	; 0x352 <handleCommands+0x70>
     328:	80 91 04 02 	lds	r24, 0x0204	; 0x800204 <commandBuffer+0x1>
     32c:	8f 7d       	andi	r24, 0xDF	; 223
     32e:	83 35       	cpi	r24, 0x53	; 83
     330:	39 f5       	brne	.+78     	; 0x380 <handleCommands+0x9e>
     332:	80 91 05 02 	lds	r24, 0x0205	; 0x800205 <commandBuffer+0x2>
     336:	8f 7d       	andi	r24, 0xDF	; 223
     338:	84 35       	cpi	r24, 0x54	; 84
     33a:	11 f5       	brne	.+68     	; 0x380 <handleCommands+0x9e>
				: "r0"
		);
	}
	else
	{
		__asm__ __volatile__ (
     33c:	98 e0       	ldi	r25, 0x08	; 8
     33e:	88 e1       	ldi	r24, 0x18	; 24
     340:	0f b6       	in	r0, 0x3f	; 63
     342:	f8 94       	cli
     344:	a8 95       	wdr
     346:	80 93 60 00 	sts	0x0060, r24	; 0x800060 <__TEXT_REGION_LENGTH__+0x7f8060>
     34a:	0f be       	out	0x3f, r0	; 63
     34c:	90 93 60 00 	sts	0x0060, r25	; 0x800060 <__TEXT_REGION_LENGTH__+0x7f8060>
     350:	ff cf       	rjmp	.-2      	; 0x350 <handleCommands+0x6e>
				}
			} while(0);
		}
		
		//Halt
		if (((commandBuffer[0] == 'H') || (commandBuffer[0] == 'h'))&&((commandBuffer[1] == 'L') || (commandBuffer[1] == 'l'))&&((commandBuffer[2] == 'T') || (commandBuffer[2] == 't'))){
     352:	88 34       	cpi	r24, 0x48	; 72
     354:	a9 f4       	brne	.+42     	; 0x380 <handleCommands+0x9e>
     356:	80 91 04 02 	lds	r24, 0x0204	; 0x800204 <commandBuffer+0x1>
     35a:	8f 7d       	andi	r24, 0xDF	; 223
     35c:	8c 34       	cpi	r24, 0x4C	; 76
     35e:	09 f0       	breq	.+2      	; 0x362 <handleCommands+0x80>
     360:	43 c0       	rjmp	.+134    	; 0x3e8 <handleCommands+0x106>
     362:	80 91 05 02 	lds	r24, 0x0205	; 0x800205 <commandBuffer+0x2>
     366:	8f 7d       	andi	r24, 0xDF	; 223
     368:	84 35       	cpi	r24, 0x54	; 84
     36a:	09 f0       	breq	.+2      	; 0x36e <handleCommands+0x8c>
     36c:	3d c0       	rjmp	.+122    	; 0x3e8 <handleCommands+0x106>
			driveHalt();
     36e:	be d4       	rcall	.+2428   	; 0xcec <driveHalt>
			strcpy(answerString, "HLT");
     370:	88 e4       	ldi	r24, 0x48	; 72
     372:	9c e4       	ldi	r25, 0x4C	; 76
     374:	9a a3       	std	Y+34, r25	; 0x22
     376:	89 a3       	std	Y+33, r24	; 0x21
     378:	84 e5       	ldi	r24, 0x54	; 84
     37a:	90 e0       	ldi	r25, 0x00	; 0
     37c:	9c a3       	std	Y+36, r25	; 0x24
     37e:	8b a3       	std	Y+35, r24	; 0x23
		}
		//Not-Halt
		if (((commandBuffer[0] == 'E') || (commandBuffer[0] == 'e'))&&((commandBuffer[1] == 'S') || (commandBuffer[1] == 's'))&&((commandBuffer[2] == 'T') || (commandBuffer[2] == 't'))){
     380:	80 91 03 02 	lds	r24, 0x0203	; 0x800203 <commandBuffer>
     384:	98 2f       	mov	r25, r24
     386:	9f 7d       	andi	r25, 0xDF	; 223
     388:	95 34       	cpi	r25, 0x45	; 69
     38a:	71 f5       	brne	.+92     	; 0x3e8 <handleCommands+0x106>
     38c:	90 91 04 02 	lds	r25, 0x0204	; 0x800204 <commandBuffer+0x1>
     390:	9f 7d       	andi	r25, 0xDF	; 223
     392:	93 35       	cpi	r25, 0x53	; 83
     394:	09 f0       	breq	.+2      	; 0x398 <handleCommands+0xb6>
     396:	b6 c3       	rjmp	.+1900   	; 0xb04 <__stack+0x5>
     398:	80 91 05 02 	lds	r24, 0x0205	; 0x800205 <commandBuffer+0x2>
     39c:	8f 7d       	andi	r24, 0xDF	; 223
     39e:	84 35       	cpi	r24, 0x54	; 84
			emergencyStop();
     3a0:	49 f4       	brne	.+18     	; 0x3b4 <handleCommands+0xd2>
     3a2:	a6 d4       	rcall	.+2380   	; 0xcf0 <emergencyStop>
			strcpy(answerString, "EST");
     3a4:	85 e4       	ldi	r24, 0x45	; 69
     3a6:	93 e5       	ldi	r25, 0x53	; 83
     3a8:	9a a3       	std	Y+34, r25	; 0x22
     3aa:	89 a3       	std	Y+33, r24	; 0x21
     3ac:	84 e5       	ldi	r24, 0x54	; 84
     3ae:	90 e0       	ldi	r25, 0x00	; 0
     3b0:	9c a3       	std	Y+36, r25	; 0x24
     3b2:	8b a3       	std	Y+35, r24	; 0x23
		}
		//Freigabe Not-Halt
		if (((commandBuffer[0] == 'E') || (commandBuffer[0] == 'e'))&&((commandBuffer[1] == 'S') || (commandBuffer[1] == 's'))&&((commandBuffer[2] == 'R') || (commandBuffer[2] == 'r'))){
     3b4:	80 91 03 02 	lds	r24, 0x0203	; 0x800203 <commandBuffer>
     3b8:	85 34       	cpi	r24, 0x45	; 69
     3ba:	09 f4       	brne	.+2      	; 0x3be <handleCommands+0xdc>
     3bc:	af c3       	rjmp	.+1886   	; 0xb1c <__stack+0x1d>
     3be:	85 36       	cpi	r24, 0x65	; 101
     3c0:	99 f4       	brne	.+38     	; 0x3e8 <handleCommands+0x106>
     3c2:	80 91 04 02 	lds	r24, 0x0204	; 0x800204 <commandBuffer+0x1>
     3c6:	8f 7d       	andi	r24, 0xDF	; 223
     3c8:	83 35       	cpi	r24, 0x53	; 83
     3ca:	71 f4       	brne	.+28     	; 0x3e8 <handleCommands+0x106>
     3cc:	80 91 05 02 	lds	r24, 0x0205	; 0x800205 <commandBuffer+0x2>
     3d0:	8f 7d       	andi	r24, 0xDF	; 223
     3d2:	82 35       	cpi	r24, 0x52	; 82
			emergencyStopRelease();
     3d4:	49 f4       	brne	.+18     	; 0x3e8 <handleCommands+0x106>
     3d6:	92 d4       	rcall	.+2340   	; 0xcfc <emergencyStopRelease>
			strcpy(answerString, "ESR");
     3d8:	85 e4       	ldi	r24, 0x45	; 69
     3da:	93 e5       	ldi	r25, 0x53	; 83
     3dc:	9a a3       	std	Y+34, r25	; 0x22
     3de:	89 a3       	std	Y+33, r24	; 0x21
     3e0:	82 e5       	ldi	r24, 0x52	; 82
     3e2:	90 e0       	ldi	r25, 0x00	; 0
     3e4:	9c a3       	std	Y+36, r25	; 0x24
     3e6:	8b a3       	std	Y+35, r24	; 0x23
		}
		
		//Wechsel zu Parametriermodus
		if (((commandBuffer[0] == 'P') || (commandBuffer[0] == 'p'))&&((commandBuffer[1] == 'A') || (commandBuffer[1] == 'a'))&&((commandBuffer[2] == 'R') || (commandBuffer[2] == 'r'))&&((commandBuffer[3] == 'A') || (commandBuffer[3] == 'a'))&&((commandBuffer[4] == 'M') || (commandBuffer[4] == 'm'))){
     3e8:	80 91 03 02 	lds	r24, 0x0203	; 0x800203 <commandBuffer>
     3ec:	8f 7d       	andi	r24, 0xDF	; 223
     3ee:	80 35       	cpi	r24, 0x50	; 80
     3f0:	31 f5       	brne	.+76     	; 0x43e <__EEPROM_REGION_LENGTH__+0x3e>
     3f2:	80 91 04 02 	lds	r24, 0x0204	; 0x800204 <commandBuffer+0x1>
     3f6:	8f 7d       	andi	r24, 0xDF	; 223
     3f8:	81 34       	cpi	r24, 0x41	; 65
     3fa:	09 f0       	breq	.+2      	; 0x3fe <handleCommands+0x11c>
     3fc:	96 c3       	rjmp	.+1836   	; 0xb2a <__stack+0x2b>
     3fe:	80 91 05 02 	lds	r24, 0x0205	; 0x800205 <commandBuffer+0x2>
     402:	8f 7d       	andi	r24, 0xDF	; 223
     404:	82 35       	cpi	r24, 0x52	; 82
     406:	09 f0       	breq	.+2      	; 0x40a <__EEPROM_REGION_LENGTH__+0xa>
     408:	90 c3       	rjmp	.+1824   	; 0xb2a <__stack+0x2b>
     40a:	80 91 06 02 	lds	r24, 0x0206	; 0x800206 <commandBuffer+0x3>
     40e:	8f 7d       	andi	r24, 0xDF	; 223
     410:	81 34       	cpi	r24, 0x41	; 65
     412:	09 f0       	breq	.+2      	; 0x416 <__EEPROM_REGION_LENGTH__+0x16>
     414:	8a c3       	rjmp	.+1812   	; 0xb2a <__stack+0x2b>
     416:	80 91 07 02 	lds	r24, 0x0207	; 0x800207 <commandBuffer+0x4>
     41a:	8f 7d       	andi	r24, 0xDF	; 223
     41c:	8d 34       	cpi	r24, 0x4D	; 77
     41e:	09 f0       	breq	.+2      	; 0x422 <__EEPROM_REGION_LENGTH__+0x22>
			driveHalt();
     420:	84 c3       	rjmp	.+1800   	; 0xb2a <__stack+0x2b>
     422:	64 d4       	rcall	.+2248   	; 0xcec <driveHalt>
			driveState = DRV_STATE_PARAM;
     424:	82 e0       	ldi	r24, 0x02	; 2
     426:	80 93 35 02 	sts	0x0235, r24	; 0x800235 <driveState>
			strcpy(answerString, "PARAM");
     42a:	86 e0       	ldi	r24, 0x06	; 6
     42c:	ef e1       	ldi	r30, 0x1F	; 31
     42e:	f1 e0       	ldi	r31, 0x01	; 1
     430:	de 01       	movw	r26, r28
     432:	91 96       	adiw	r26, 0x21	; 33
     434:	01 90       	ld	r0, Z+
     436:	0d 92       	st	X+, r0
     438:	8a 95       	dec	r24
     43a:	e1 f7       	brne	.-8      	; 0x434 <__EEPROM_REGION_LENGTH__+0x34>
     43c:	05 c0       	rjmp	.+10     	; 0x448 <__EEPROM_REGION_LENGTH__+0x48>
		}
		//Parametrierbefehlea
		if(driveState == DRV_STATE_PARAM)
     43e:	80 91 35 02 	lds	r24, 0x0235	; 0x800235 <driveState>
     442:	82 30       	cpi	r24, 0x02	; 2
     444:	09 f0       	breq	.+2      	; 0x448 <__EEPROM_REGION_LENGTH__+0x48>
     446:	b8 c2       	rjmp	.+1392   	; 0x9b8 <__EEPROM_REGION_LENGTH__+0x5b8>
		{
			//EXIT beendet den Parametriermodus
			if (((commandBuffer[0] == 'E') || (commandBuffer[0] == 'e'))&&((commandBuffer[1] == 'X') || (commandBuffer[1] == 'x'))&&((commandBuffer[2] == 'I') || (commandBuffer[2] == 'i'))&&((commandBuffer[3] == 'T') || (commandBuffer[3] == 't'))){
     448:	80 91 03 02 	lds	r24, 0x0203	; 0x800203 <commandBuffer>
     44c:	8f 7d       	andi	r24, 0xDF	; 223
     44e:	85 34       	cpi	r24, 0x45	; 69
     450:	29 f5       	brne	.+74     	; 0x49c <__EEPROM_REGION_LENGTH__+0x9c>
     452:	80 91 04 02 	lds	r24, 0x0204	; 0x800204 <commandBuffer+0x1>
     456:	8f 7d       	andi	r24, 0xDF	; 223
     458:	88 35       	cpi	r24, 0x58	; 88
     45a:	09 f0       	breq	.+2      	; 0x45e <__EEPROM_REGION_LENGTH__+0x5e>
     45c:	ad c2       	rjmp	.+1370   	; 0x9b8 <__EEPROM_REGION_LENGTH__+0x5b8>
     45e:	80 91 05 02 	lds	r24, 0x0205	; 0x800205 <commandBuffer+0x2>
     462:	8f 7d       	andi	r24, 0xDF	; 223
     464:	89 34       	cpi	r24, 0x49	; 73
     466:	09 f0       	breq	.+2      	; 0x46a <__EEPROM_REGION_LENGTH__+0x6a>
     468:	a7 c2       	rjmp	.+1358   	; 0x9b8 <__EEPROM_REGION_LENGTH__+0x5b8>
     46a:	80 91 06 02 	lds	r24, 0x0206	; 0x800206 <commandBuffer+0x3>
     46e:	8f 7d       	andi	r24, 0xDF	; 223
     470:	84 35       	cpi	r24, 0x54	; 84
     472:	09 f0       	breq	.+2      	; 0x476 <__EEPROM_REGION_LENGTH__+0x76>
				driveHalt();
     474:	a1 c2       	rjmp	.+1346   	; 0x9b8 <__EEPROM_REGION_LENGTH__+0x5b8>
     476:	3a d4       	rcall	.+2164   	; 0xcec <driveHalt>
				driveState = DRV_STATE_RDY;
     478:	10 92 35 02 	sts	0x0235, r1	; 0x800235 <driveState>
				strcpy(answerString, "EXIT");
     47c:	85 e0       	ldi	r24, 0x05	; 5
     47e:	e5 e2       	ldi	r30, 0x25	; 37
     480:	f1 e0       	ldi	r31, 0x01	; 1
     482:	de 01       	movw	r26, r28
     484:	91 96       	adiw	r26, 0x21	; 33
     486:	01 90       	ld	r0, Z+
     488:	0d 92       	st	X+, r0
     48a:	8a 95       	dec	r24
     48c:	e1 f7       	brne	.-8      	; 0x486 <__EEPROM_REGION_LENGTH__+0x86>
			}
			
			//Erstes Zeichen bestimmt den Schrittmotor.
			if ((commandBuffer[0] == 'A') || (commandBuffer[0] == 'a') || (commandBuffer[0] == 'B') || (commandBuffer[0] == 'b')){
     48e:	80 91 03 02 	lds	r24, 0x0203	; 0x800203 <commandBuffer>
     492:	8f 7d       	andi	r24, 0xDF	; 223
     494:	81 54       	subi	r24, 0x41	; 65
     496:	82 30       	cpi	r24, 0x02	; 2
     498:	40 f0       	brcs	.+16     	; 0x4aa <__EEPROM_REGION_LENGTH__+0xaa>
     49a:	92 c2       	rjmp	.+1316   	; 0x9c0 <__EEPROM_REGION_LENGTH__+0x5c0>
     49c:	80 91 03 02 	lds	r24, 0x0203	; 0x800203 <commandBuffer>
     4a0:	8f 7d       	andi	r24, 0xDF	; 223
     4a2:	81 54       	subi	r24, 0x41	; 65
     4a4:	82 30       	cpi	r24, 0x02	; 2
     4a6:	08 f0       	brcs	.+2      	; 0x4aa <__EEPROM_REGION_LENGTH__+0xaa>
     4a8:	87 c2       	rjmp	.+1294   	; 0x9b8 <__EEPROM_REGION_LENGTH__+0x5b8>
					
				}


				//SPU Steps per Unit
				if (((commandBuffer[1] == 'S') || (commandBuffer[1] == 's'))&&((commandBuffer[2] == 'P') || (commandBuffer[2] == 'p'))&&((commandBuffer[3] == 'U') || (commandBuffer[3] == 'u')))
     4aa:	80 91 04 02 	lds	r24, 0x0204	; 0x800204 <commandBuffer+0x1>
     4ae:	8f 7d       	andi	r24, 0xDF	; 223
     4b0:	83 35       	cpi	r24, 0x53	; 83
     4b2:	d9 f5       	brne	.+118    	; 0x52a <__EEPROM_REGION_LENGTH__+0x12a>
     4b4:	80 91 05 02 	lds	r24, 0x0205	; 0x800205 <commandBuffer+0x2>
     4b8:	8f 7d       	andi	r24, 0xDF	; 223
     4ba:	80 35       	cpi	r24, 0x50	; 80
     4bc:	09 f0       	breq	.+2      	; 0x4c0 <__EEPROM_REGION_LENGTH__+0xc0>
     4be:	b1 c0       	rjmp	.+354    	; 0x622 <__EEPROM_REGION_LENGTH__+0x222>
     4c0:	80 91 06 02 	lds	r24, 0x0206	; 0x800206 <commandBuffer+0x3>
     4c4:	8f 7d       	andi	r24, 0xDF	; 223
     4c6:	85 35       	cpi	r24, 0x55	; 85
     4c8:	09 f0       	breq	.+2      	; 0x4cc <__EEPROM_REGION_LENGTH__+0xcc>
     4ca:	ab c0       	rjmp	.+342    	; 0x622 <__EEPROM_REGION_LENGTH__+0x222>
				{
					if (commandBuffer[4] == '='){
     4cc:	80 91 07 02 	lds	r24, 0x0207	; 0x800207 <commandBuffer+0x4>
     4d0:	8d 33       	cpi	r24, 0x3D	; 61
     4d2:	a9 f4       	brne	.+42     	; 0x4fe <__EEPROM_REGION_LENGTH__+0xfe>
						(*pSettings).steps_per_unit = atof(commandBuffer+5);
     4d4:	88 e0       	ldi	r24, 0x08	; 8
     4d6:	92 e0       	ldi	r25, 0x02	; 2
     4d8:	0e 94 af 13 	call	0x275e	; 0x275e <atof>
     4dc:	60 93 15 02 	sts	0x0215, r22	; 0x800215 <stepper_a_settings>
     4e0:	70 93 16 02 	sts	0x0216, r23	; 0x800216 <stepper_a_settings+0x1>
     4e4:	80 93 17 02 	sts	0x0217, r24	; 0x800217 <stepper_a_settings+0x2>
     4e8:	90 93 18 02 	sts	0x0218, r25	; 0x800218 <stepper_a_settings+0x3>
						strcpy(answerString, "SPU=");
     4ec:	85 e0       	ldi	r24, 0x05	; 5
     4ee:	ea e2       	ldi	r30, 0x2A	; 42
     4f0:	f1 e0       	ldi	r31, 0x01	; 1
     4f2:	de 01       	movw	r26, r28
     4f4:	91 96       	adiw	r26, 0x21	; 33
     4f6:	01 90       	ld	r0, Z+
     4f8:	0d 92       	st	X+, r0
     4fa:	8a 95       	dec	r24
     4fc:	e1 f7       	brne	.-8      	; 0x4f6 <__EEPROM_REGION_LENGTH__+0xf6>
					}
					
					if (commandBuffer[4] == '?'){
     4fe:	80 91 07 02 	lds	r24, 0x0207	; 0x800207 <commandBuffer+0x4>
     502:	8f 33       	cpi	r24, 0x3F	; 63
     504:	91 f4       	brne	.+36     	; 0x52a <__EEPROM_REGION_LENGTH__+0x12a>
						char buffer[32];
						double2str(buffer, (*pSettings).steps_per_unit);
     506:	40 91 15 02 	lds	r20, 0x0215	; 0x800215 <stepper_a_settings>
     50a:	50 91 16 02 	lds	r21, 0x0216	; 0x800216 <stepper_a_settings+0x1>
     50e:	60 91 17 02 	lds	r22, 0x0217	; 0x800217 <stepper_a_settings+0x2>
     512:	70 91 18 02 	lds	r23, 0x0218	; 0x800218 <stepper_a_settings+0x3>
     516:	ce 01       	movw	r24, r28
     518:	01 96       	adiw	r24, 0x01	; 1
     51a:	7b d3       	rcall	.+1782   	; 0xc12 <double2str>
						strcpy(answerString, buffer);
     51c:	be 01       	movw	r22, r28
     51e:	6f 5f       	subi	r22, 0xFF	; 255
     520:	7f 4f       	sbci	r23, 0xFF	; 255
     522:	ce 01       	movw	r24, r28
     524:	81 96       	adiw	r24, 0x21	; 33
     526:	0e 94 bd 13 	call	0x277a	; 0x277a <strcpy>
					}
				}
				
				//VLM Geschwindigkeitsbegrenzung
				if (((commandBuffer[1] == 'V') || (commandBuffer[1] == 'v'))&&((commandBuffer[2] == 'L') || (commandBuffer[2] == 'l'))&&((commandBuffer[3] == 'M') || (commandBuffer[3] == 'm')))
     52a:	80 91 04 02 	lds	r24, 0x0204	; 0x800204 <commandBuffer+0x1>
     52e:	8f 7d       	andi	r24, 0xDF	; 223
     530:	86 35       	cpi	r24, 0x56	; 86
     532:	09 f0       	breq	.+2      	; 0x536 <__EEPROM_REGION_LENGTH__+0x136>
     534:	b7 c0       	rjmp	.+366    	; 0x6a4 <__EEPROM_REGION_LENGTH__+0x2a4>
     536:	80 91 05 02 	lds	r24, 0x0205	; 0x800205 <commandBuffer+0x2>
     53a:	8f 7d       	andi	r24, 0xDF	; 223
     53c:	8c 34       	cpi	r24, 0x4C	; 76
     53e:	09 f0       	breq	.+2      	; 0x542 <__EEPROM_REGION_LENGTH__+0x142>
     540:	fa c2       	rjmp	.+1524   	; 0xb36 <__stack+0x37>
     542:	90 91 06 02 	lds	r25, 0x0206	; 0x800206 <commandBuffer+0x3>
     546:	9f 7d       	andi	r25, 0xDF	; 223
     548:	9d 34       	cpi	r25, 0x4D	; 77
     54a:	09 f0       	breq	.+2      	; 0x54e <__EEPROM_REGION_LENGTH__+0x14e>
     54c:	f4 c2       	rjmp	.+1512   	; 0xb36 <__stack+0x37>
				{
					if (commandBuffer[4] == '=')
     54e:	90 91 07 02 	lds	r25, 0x0207	; 0x800207 <commandBuffer+0x4>
     552:	9d 33       	cpi	r25, 0x3D	; 61
     554:	01 f5       	brne	.+64     	; 0x596 <__EEPROM_REGION_LENGTH__+0x196>
					{
						if (commandBuffer[5] == '0')
     556:	90 91 08 02 	lds	r25, 0x0208	; 0x800208 <commandBuffer+0x5>
     55a:	90 33       	cpi	r25, 0x30	; 48
     55c:	61 f4       	brne	.+24     	; 0x576 <__EEPROM_REGION_LENGTH__+0x176>
						{
							(*pSettings).speed_max_enabled = 0;
     55e:	10 92 1d 02 	sts	0x021D, r1	; 0x80021d <stepper_a_settings+0x8>
							strcpy(answerString, "VLM=");
     562:	95 e0       	ldi	r25, 0x05	; 5
     564:	ef e2       	ldi	r30, 0x2F	; 47
     566:	f1 e0       	ldi	r31, 0x01	; 1
     568:	de 01       	movw	r26, r28
     56a:	91 96       	adiw	r26, 0x21	; 33
     56c:	01 90       	ld	r0, Z+
     56e:	0d 92       	st	X+, r0
     570:	9a 95       	dec	r25
     572:	e1 f7       	brne	.-8      	; 0x56c <__EEPROM_REGION_LENGTH__+0x16c>
     574:	e0 c2       	rjmp	.+1472   	; 0xb36 <__stack+0x37>
						}
						else if (commandBuffer[5] == '1')
     576:	91 33       	cpi	r25, 0x31	; 49
     578:	09 f0       	breq	.+2      	; 0x57c <__EEPROM_REGION_LENGTH__+0x17c>
     57a:	dd c2       	rjmp	.+1466   	; 0xb36 <__stack+0x37>
						{
							(*pSettings).speed_max_enabled = 1;
     57c:	91 e0       	ldi	r25, 0x01	; 1
     57e:	90 93 1d 02 	sts	0x021D, r25	; 0x80021d <stepper_a_settings+0x8>
							strcpy(answerString, "VLM=");
     582:	95 e0       	ldi	r25, 0x05	; 5
     584:	ef e2       	ldi	r30, 0x2F	; 47
     586:	f1 e0       	ldi	r31, 0x01	; 1
     588:	de 01       	movw	r26, r28
     58a:	91 96       	adiw	r26, 0x21	; 33
     58c:	01 90       	ld	r0, Z+
     58e:	0d 92       	st	X+, r0
     590:	9a 95       	dec	r25
     592:	e1 f7       	brne	.-8      	; 0x58c <__EEPROM_REGION_LENGTH__+0x18c>
     594:	d0 c2       	rjmp	.+1440   	; 0xb36 <__stack+0x37>
						}
					}
					if (commandBuffer[4] == '?')
     596:	9f 33       	cpi	r25, 0x3F	; 63
     598:	09 f0       	breq	.+2      	; 0x59c <__EEPROM_REGION_LENGTH__+0x19c>
     59a:	cd c2       	rjmp	.+1434   	; 0xb36 <__stack+0x37>
					strcpy(answerString, (*pSettings).speed_max_enabled == 1 ? "1" : "0");
     59c:	90 91 1d 02 	lds	r25, 0x021D	; 0x80021d <stepper_a_settings+0x8>
     5a0:	91 30       	cpi	r25, 0x01	; 1
     5a2:	19 f0       	breq	.+6      	; 0x5aa <__EEPROM_REGION_LENGTH__+0x1aa>
     5a4:	ed e1       	ldi	r30, 0x1D	; 29
     5a6:	f1 e0       	ldi	r31, 0x01	; 1
     5a8:	02 c0       	rjmp	.+4      	; 0x5ae <__EEPROM_REGION_LENGTH__+0x1ae>
     5aa:	eb e1       	ldi	r30, 0x1B	; 27
     5ac:	f1 e0       	ldi	r31, 0x01	; 1
     5ae:	20 81       	ld	r18, Z
     5b0:	31 81       	ldd	r19, Z+1	; 0x01
     5b2:	3a a3       	std	Y+34, r19	; 0x22
     5b4:	29 a3       	std	Y+33, r18	; 0x21
     5b6:	bf c2       	rjmp	.+1406   	; 0xb36 <__stack+0x37>
				}
				//VMX Maximalgeschwindigkeit
				if (((commandBuffer[1] == 'V') || (commandBuffer[1] == 'v'))&&((commandBuffer[2] == 'M') || (commandBuffer[2] == 'm'))&&((commandBuffer[3] == 'X') || (commandBuffer[3] == 'x')))
     5b8:	80 91 06 02 	lds	r24, 0x0206	; 0x800206 <commandBuffer+0x3>
     5bc:	8f 7d       	andi	r24, 0xDF	; 223
     5be:	88 35       	cpi	r24, 0x58	; 88
     5c0:	a9 f5       	brne	.+106    	; 0x62c <__EEPROM_REGION_LENGTH__+0x22c>
				{
					if (commandBuffer[4] == '='){
     5c2:	80 91 07 02 	lds	r24, 0x0207	; 0x800207 <commandBuffer+0x4>
     5c6:	8d 33       	cpi	r24, 0x3D	; 61
     5c8:	09 f0       	breq	.+2      	; 0x5cc <__EEPROM_REGION_LENGTH__+0x1cc>
     5ca:	b9 c2       	rjmp	.+1394   	; 0xb3e <__stack+0x3f>
						(*pSettings).speed_max = atof(commandBuffer+5);
     5cc:	88 e0       	ldi	r24, 0x08	; 8
     5ce:	92 e0       	ldi	r25, 0x02	; 2
     5d0:	0e 94 af 13 	call	0x275e	; 0x275e <atof>
     5d4:	60 93 1e 02 	sts	0x021E, r22	; 0x80021e <stepper_a_settings+0x9>
     5d8:	70 93 1f 02 	sts	0x021F, r23	; 0x80021f <stepper_a_settings+0xa>
     5dc:	80 93 20 02 	sts	0x0220, r24	; 0x800220 <stepper_a_settings+0xb>
     5e0:	90 93 21 02 	sts	0x0221, r25	; 0x800221 <stepper_a_settings+0xc>
						strcpy(answerString, "VMX=");
     5e4:	85 e0       	ldi	r24, 0x05	; 5
     5e6:	e4 e3       	ldi	r30, 0x34	; 52
     5e8:	f1 e0       	ldi	r31, 0x01	; 1
     5ea:	de 01       	movw	r26, r28
     5ec:	91 96       	adiw	r26, 0x21	; 33
     5ee:	01 90       	ld	r0, Z+
     5f0:	0d 92       	st	X+, r0
     5f2:	8a 95       	dec	r24
     5f4:	e1 f7       	brne	.-8      	; 0x5ee <__EEPROM_REGION_LENGTH__+0x1ee>
					}
					
					if (commandBuffer[4] == '?'){
     5f6:	80 91 07 02 	lds	r24, 0x0207	; 0x800207 <commandBuffer+0x4>
     5fa:	8f 33       	cpi	r24, 0x3F	; 63
     5fc:	91 f4       	brne	.+36     	; 0x622 <__EEPROM_REGION_LENGTH__+0x222>
						char buffer[32];
						double2str(buffer, (*pSettings).speed_max);
     5fe:	40 91 1e 02 	lds	r20, 0x021E	; 0x80021e <stepper_a_settings+0x9>
     602:	50 91 1f 02 	lds	r21, 0x021F	; 0x80021f <stepper_a_settings+0xa>
     606:	60 91 20 02 	lds	r22, 0x0220	; 0x800220 <stepper_a_settings+0xb>
     60a:	70 91 21 02 	lds	r23, 0x0221	; 0x800221 <stepper_a_settings+0xc>
     60e:	ce 01       	movw	r24, r28
     610:	01 96       	adiw	r24, 0x01	; 1
     612:	ff d2       	rcall	.+1534   	; 0xc12 <double2str>
						strcpy(answerString, buffer);
     614:	be 01       	movw	r22, r28
     616:	6f 5f       	subi	r22, 0xFF	; 255
     618:	7f 4f       	sbci	r23, 0xFF	; 255
     61a:	ce 01       	movw	r24, r28
     61c:	81 96       	adiw	r24, 0x21	; 33
     61e:	0e 94 bd 13 	call	0x277a	; 0x277a <strcpy>
					}
				}

				//VDF Standardgeschwindigkeit
				if (((commandBuffer[1] == 'V') || (commandBuffer[1] == 'v'))&&((commandBuffer[2] == 'D') || (commandBuffer[2] == 'd'))&&((commandBuffer[3] == 'F') || (commandBuffer[3] == 'f')))
     622:	80 91 04 02 	lds	r24, 0x0204	; 0x800204 <commandBuffer+0x1>
     626:	8f 7d       	andi	r24, 0xDF	; 223
     628:	86 35       	cpi	r24, 0x56	; 86
     62a:	e1 f5       	brne	.+120    	; 0x6a4 <__EEPROM_REGION_LENGTH__+0x2a4>
     62c:	80 91 05 02 	lds	r24, 0x0205	; 0x800205 <commandBuffer+0x2>
     630:	8f 7d       	andi	r24, 0xDF	; 223
     632:	84 34       	cpi	r24, 0x44	; 68
     634:	09 f0       	breq	.+2      	; 0x638 <__EEPROM_REGION_LENGTH__+0x238>
     636:	b2 c0       	rjmp	.+356    	; 0x79c <__EEPROM_REGION_LENGTH__+0x39c>
     638:	80 91 06 02 	lds	r24, 0x0206	; 0x800206 <commandBuffer+0x3>
     63c:	8f 7d       	andi	r24, 0xDF	; 223
     63e:	86 34       	cpi	r24, 0x46	; 70
     640:	09 f0       	breq	.+2      	; 0x644 <__EEPROM_REGION_LENGTH__+0x244>
     642:	ac c0       	rjmp	.+344    	; 0x79c <__EEPROM_REGION_LENGTH__+0x39c>
				{
					if (commandBuffer[4] == '='){
     644:	80 91 07 02 	lds	r24, 0x0207	; 0x800207 <commandBuffer+0x4>
     648:	8d 33       	cpi	r24, 0x3D	; 61
     64a:	09 f0       	breq	.+2      	; 0x64e <__EEPROM_REGION_LENGTH__+0x24e>
     64c:	7e c2       	rjmp	.+1276   	; 0xb4a <__stack+0x4b>
						(*pSettings).speed_default = atof(commandBuffer+5);
     64e:	88 e0       	ldi	r24, 0x08	; 8
     650:	92 e0       	ldi	r25, 0x02	; 2
     652:	0e 94 af 13 	call	0x275e	; 0x275e <atof>
     656:	60 93 19 02 	sts	0x0219, r22	; 0x800219 <stepper_a_settings+0x4>
     65a:	70 93 1a 02 	sts	0x021A, r23	; 0x80021a <stepper_a_settings+0x5>
     65e:	80 93 1b 02 	sts	0x021B, r24	; 0x80021b <stepper_a_settings+0x6>
     662:	90 93 1c 02 	sts	0x021C, r25	; 0x80021c <stepper_a_settings+0x7>
						strcpy(answerString, "VDF=");
     666:	85 e0       	ldi	r24, 0x05	; 5
     668:	e9 e3       	ldi	r30, 0x39	; 57
     66a:	f1 e0       	ldi	r31, 0x01	; 1
     66c:	de 01       	movw	r26, r28
     66e:	91 96       	adiw	r26, 0x21	; 33
     670:	01 90       	ld	r0, Z+
     672:	0d 92       	st	X+, r0
     674:	8a 95       	dec	r24
     676:	e1 f7       	brne	.-8      	; 0x670 <__EEPROM_REGION_LENGTH__+0x270>
					}
					
					if (commandBuffer[4] == '?'){
     678:	80 91 07 02 	lds	r24, 0x0207	; 0x800207 <commandBuffer+0x4>
     67c:	8f 33       	cpi	r24, 0x3F	; 63
     67e:	91 f4       	brne	.+36     	; 0x6a4 <__EEPROM_REGION_LENGTH__+0x2a4>
						char buffer[32];
						double2str(buffer, (*pSettings).speed_default);
     680:	40 91 19 02 	lds	r20, 0x0219	; 0x800219 <stepper_a_settings+0x4>
     684:	50 91 1a 02 	lds	r21, 0x021A	; 0x80021a <stepper_a_settings+0x5>
     688:	60 91 1b 02 	lds	r22, 0x021B	; 0x80021b <stepper_a_settings+0x6>
     68c:	70 91 1c 02 	lds	r23, 0x021C	; 0x80021c <stepper_a_settings+0x7>
     690:	ce 01       	movw	r24, r28
     692:	01 96       	adiw	r24, 0x01	; 1
     694:	be d2       	rcall	.+1404   	; 0xc12 <double2str>
						strcpy(answerString, buffer);
     696:	be 01       	movw	r22, r28
     698:	6f 5f       	subi	r22, 0xFF	; 255
     69a:	7f 4f       	sbci	r23, 0xFF	; 255
     69c:	ce 01       	movw	r24, r28
     69e:	81 96       	adiw	r24, 0x21	; 33
     6a0:	0e 94 bd 13 	call	0x277a	; 0x277a <strcpy>
					}
				}
				
				//PLM Positionsbegrenzung
				if (((commandBuffer[1] == 'P') || (commandBuffer[1] == 'p'))&&((commandBuffer[2] == 'L') || (commandBuffer[2] == 'l'))&&((commandBuffer[3] == 'M') || (commandBuffer[3] == 'm')))
     6a4:	80 91 04 02 	lds	r24, 0x0204	; 0x800204 <commandBuffer+0x1>
     6a8:	98 2f       	mov	r25, r24
     6aa:	9f 7d       	andi	r25, 0xDF	; 223
     6ac:	90 35       	cpi	r25, 0x50	; 80
     6ae:	09 f0       	breq	.+2      	; 0x6b2 <__EEPROM_REGION_LENGTH__+0x2b2>
     6b0:	75 c0       	rjmp	.+234    	; 0x79c <__EEPROM_REGION_LENGTH__+0x39c>
     6b2:	90 91 05 02 	lds	r25, 0x0205	; 0x800205 <commandBuffer+0x2>
     6b6:	9f 7d       	andi	r25, 0xDF	; 223
     6b8:	9c 34       	cpi	r25, 0x4C	; 76
     6ba:	09 f0       	breq	.+2      	; 0x6be <__EEPROM_REGION_LENGTH__+0x2be>
     6bc:	4c c2       	rjmp	.+1176   	; 0xb56 <__stack+0x57>
     6be:	20 91 06 02 	lds	r18, 0x0206	; 0x800206 <commandBuffer+0x3>
     6c2:	2f 7d       	andi	r18, 0xDF	; 223
     6c4:	2d 34       	cpi	r18, 0x4D	; 77
     6c6:	09 f0       	breq	.+2      	; 0x6ca <__EEPROM_REGION_LENGTH__+0x2ca>
     6c8:	46 c2       	rjmp	.+1164   	; 0xb56 <__stack+0x57>
				{
					if (commandBuffer[4] == '=')
     6ca:	20 91 07 02 	lds	r18, 0x0207	; 0x800207 <commandBuffer+0x4>
     6ce:	2d 33       	cpi	r18, 0x3D	; 61
     6d0:	01 f5       	brne	.+64     	; 0x712 <__EEPROM_REGION_LENGTH__+0x312>
					{
						if (commandBuffer[5] == '0')
     6d2:	20 91 08 02 	lds	r18, 0x0208	; 0x800208 <commandBuffer+0x5>
     6d6:	20 33       	cpi	r18, 0x30	; 48
     6d8:	61 f4       	brne	.+24     	; 0x6f2 <__EEPROM_REGION_LENGTH__+0x2f2>
						{
							(*pSettings).position_limit_enabled = 0;
     6da:	10 92 22 02 	sts	0x0222, r1	; 0x800222 <stepper_a_settings+0xd>
							strcpy(answerString, "PLM=");
     6de:	25 e0       	ldi	r18, 0x05	; 5
     6e0:	ee e3       	ldi	r30, 0x3E	; 62
     6e2:	f1 e0       	ldi	r31, 0x01	; 1
     6e4:	de 01       	movw	r26, r28
     6e6:	91 96       	adiw	r26, 0x21	; 33
     6e8:	01 90       	ld	r0, Z+
     6ea:	0d 92       	st	X+, r0
     6ec:	2a 95       	dec	r18
     6ee:	e1 f7       	brne	.-8      	; 0x6e8 <__EEPROM_REGION_LENGTH__+0x2e8>
     6f0:	32 c2       	rjmp	.+1124   	; 0xb56 <__stack+0x57>
						}
						else if (commandBuffer[5] == '1')
     6f2:	21 33       	cpi	r18, 0x31	; 49
     6f4:	09 f0       	breq	.+2      	; 0x6f8 <__EEPROM_REGION_LENGTH__+0x2f8>
     6f6:	2f c2       	rjmp	.+1118   	; 0xb56 <__stack+0x57>
						{
							(*pSettings).position_limit_enabled = 1;
     6f8:	21 e0       	ldi	r18, 0x01	; 1
     6fa:	20 93 22 02 	sts	0x0222, r18	; 0x800222 <stepper_a_settings+0xd>
							strcpy(answerString, "PLM=");
     6fe:	25 e0       	ldi	r18, 0x05	; 5
     700:	ee e3       	ldi	r30, 0x3E	; 62
     702:	f1 e0       	ldi	r31, 0x01	; 1
     704:	de 01       	movw	r26, r28
     706:	91 96       	adiw	r26, 0x21	; 33
     708:	01 90       	ld	r0, Z+
     70a:	0d 92       	st	X+, r0
     70c:	2a 95       	dec	r18
     70e:	e1 f7       	brne	.-8      	; 0x708 <__EEPROM_REGION_LENGTH__+0x308>
     710:	22 c2       	rjmp	.+1092   	; 0xb56 <__stack+0x57>
						}
					}
					if (commandBuffer[4] == '?')
     712:	2f 33       	cpi	r18, 0x3F	; 63
     714:	09 f0       	breq	.+2      	; 0x718 <__EEPROM_REGION_LENGTH__+0x318>
     716:	1f c2       	rjmp	.+1086   	; 0xb56 <__stack+0x57>
					strcpy(answerString, (*pSettings).position_limit_enabled == 1 ? "1" : "0");
     718:	20 91 22 02 	lds	r18, 0x0222	; 0x800222 <stepper_a_settings+0xd>
     71c:	21 30       	cpi	r18, 0x01	; 1
     71e:	19 f0       	breq	.+6      	; 0x726 <__EEPROM_REGION_LENGTH__+0x326>
     720:	ed e1       	ldi	r30, 0x1D	; 29
     722:	f1 e0       	ldi	r31, 0x01	; 1
     724:	02 c0       	rjmp	.+4      	; 0x72a <__EEPROM_REGION_LENGTH__+0x32a>
     726:	eb e1       	ldi	r30, 0x1B	; 27
     728:	f1 e0       	ldi	r31, 0x01	; 1
     72a:	20 81       	ld	r18, Z
     72c:	31 81       	ldd	r19, Z+1	; 0x01
     72e:	3a a3       	std	Y+34, r19	; 0x22
     730:	29 a3       	std	Y+33, r18	; 0x21
     732:	11 c2       	rjmp	.+1058   	; 0xb56 <__stack+0x57>
				}
				
				//PMX Maximale Position
				if (((commandBuffer[1] == 'P') || (commandBuffer[1] == 'p'))&&((commandBuffer[2] == 'M') || (commandBuffer[2] == 'm'))&&((commandBuffer[3] == 'X') || (commandBuffer[3] == 'x')))
     734:	80 91 06 02 	lds	r24, 0x0206	; 0x800206 <commandBuffer+0x3>
     738:	8f 7d       	andi	r24, 0xDF	; 223
     73a:	88 35       	cpi	r24, 0x58	; 88
     73c:	79 f5       	brne	.+94     	; 0x79c <__EEPROM_REGION_LENGTH__+0x39c>
				{
					if (commandBuffer[4] == '='){
     73e:	80 91 07 02 	lds	r24, 0x0207	; 0x800207 <commandBuffer+0x4>
     742:	8d 33       	cpi	r24, 0x3D	; 61
     744:	a9 f4       	brne	.+42     	; 0x770 <__EEPROM_REGION_LENGTH__+0x370>
						(*pSettings).position_max = atof(commandBuffer+5);
     746:	88 e0       	ldi	r24, 0x08	; 8
     748:	92 e0       	ldi	r25, 0x02	; 2
     74a:	0e 94 af 13 	call	0x275e	; 0x275e <atof>
     74e:	60 93 23 02 	sts	0x0223, r22	; 0x800223 <stepper_a_settings+0xe>
     752:	70 93 24 02 	sts	0x0224, r23	; 0x800224 <stepper_a_settings+0xf>
     756:	80 93 25 02 	sts	0x0225, r24	; 0x800225 <stepper_a_settings+0x10>
     75a:	90 93 26 02 	sts	0x0226, r25	; 0x800226 <stepper_a_settings+0x11>
						strcpy(answerString, "PMX=");
     75e:	85 e0       	ldi	r24, 0x05	; 5
     760:	e3 e4       	ldi	r30, 0x43	; 67
     762:	f1 e0       	ldi	r31, 0x01	; 1
     764:	de 01       	movw	r26, r28
     766:	91 96       	adiw	r26, 0x21	; 33
     768:	01 90       	ld	r0, Z+
     76a:	0d 92       	st	X+, r0
     76c:	8a 95       	dec	r24
     76e:	e1 f7       	brne	.-8      	; 0x768 <__EEPROM_REGION_LENGTH__+0x368>
					}
					
					if (commandBuffer[4] == '?'){
     770:	80 91 07 02 	lds	r24, 0x0207	; 0x800207 <commandBuffer+0x4>
     774:	8f 33       	cpi	r24, 0x3F	; 63
     776:	91 f4       	brne	.+36     	; 0x79c <__EEPROM_REGION_LENGTH__+0x39c>
						char buffer[32];
						double2str(buffer, (*pSettings).position_max);
     778:	40 91 23 02 	lds	r20, 0x0223	; 0x800223 <stepper_a_settings+0xe>
     77c:	50 91 24 02 	lds	r21, 0x0224	; 0x800224 <stepper_a_settings+0xf>
     780:	60 91 25 02 	lds	r22, 0x0225	; 0x800225 <stepper_a_settings+0x10>
     784:	70 91 26 02 	lds	r23, 0x0226	; 0x800226 <stepper_a_settings+0x11>
     788:	ce 01       	movw	r24, r28
     78a:	01 96       	adiw	r24, 0x01	; 1
     78c:	42 d2       	rcall	.+1156   	; 0xc12 <double2str>
						strcpy(answerString, buffer);
     78e:	be 01       	movw	r22, r28
     790:	6f 5f       	subi	r22, 0xFF	; 255
     792:	7f 4f       	sbci	r23, 0xFF	; 255
     794:	ce 01       	movw	r24, r28
     796:	81 96       	adiw	r24, 0x21	; 33
     798:	0e 94 bd 13 	call	0x277a	; 0x277a <strcpy>
					}
				}
				//PMN Minimale Position
				if (((commandBuffer[1] == 'P') || (commandBuffer[1] == 'p'))&&((commandBuffer[2] == 'M') || (commandBuffer[2] == 'm'))&&((commandBuffer[3] == 'N') || (commandBuffer[3] == 'n')))
     79c:	80 91 04 02 	lds	r24, 0x0204	; 0x800204 <commandBuffer+0x1>
     7a0:	80 35       	cpi	r24, 0x50	; 80
     7a2:	11 f0       	breq	.+4      	; 0x7a8 <__EEPROM_REGION_LENGTH__+0x3a8>
     7a4:	80 37       	cpi	r24, 0x70	; 112
     7a6:	c9 f5       	brne	.+114    	; 0x81a <__EEPROM_REGION_LENGTH__+0x41a>
     7a8:	80 91 05 02 	lds	r24, 0x0205	; 0x800205 <commandBuffer+0x2>
     7ac:	8f 7d       	andi	r24, 0xDF	; 223
     7ae:	8d 34       	cpi	r24, 0x4D	; 77
     7b0:	a1 f5       	brne	.+104    	; 0x81a <__EEPROM_REGION_LENGTH__+0x41a>
     7b2:	80 91 06 02 	lds	r24, 0x0206	; 0x800206 <commandBuffer+0x3>
     7b6:	8f 7d       	andi	r24, 0xDF	; 223
     7b8:	8e 34       	cpi	r24, 0x4E	; 78
     7ba:	79 f5       	brne	.+94     	; 0x81a <__EEPROM_REGION_LENGTH__+0x41a>
				{
					if (commandBuffer[4] == '='){
     7bc:	80 91 07 02 	lds	r24, 0x0207	; 0x800207 <commandBuffer+0x4>
     7c0:	8d 33       	cpi	r24, 0x3D	; 61
     7c2:	a9 f4       	brne	.+42     	; 0x7ee <__EEPROM_REGION_LENGTH__+0x3ee>
						(*pSettings).position_min = atof(commandBuffer+5);
     7c4:	88 e0       	ldi	r24, 0x08	; 8
     7c6:	92 e0       	ldi	r25, 0x02	; 2
     7c8:	0e 94 af 13 	call	0x275e	; 0x275e <atof>
     7cc:	60 93 27 02 	sts	0x0227, r22	; 0x800227 <stepper_a_settings+0x12>
     7d0:	70 93 28 02 	sts	0x0228, r23	; 0x800228 <stepper_a_settings+0x13>
     7d4:	80 93 29 02 	sts	0x0229, r24	; 0x800229 <stepper_a_settings+0x14>
     7d8:	90 93 2a 02 	sts	0x022A, r25	; 0x80022a <stepper_a_settings+0x15>
						strcpy(answerString, "PMN=");
     7dc:	85 e0       	ldi	r24, 0x05	; 5
     7de:	e8 e4       	ldi	r30, 0x48	; 72
     7e0:	f1 e0       	ldi	r31, 0x01	; 1
     7e2:	de 01       	movw	r26, r28
     7e4:	91 96       	adiw	r26, 0x21	; 33
     7e6:	01 90       	ld	r0, Z+
     7e8:	0d 92       	st	X+, r0
     7ea:	8a 95       	dec	r24
     7ec:	e1 f7       	brne	.-8      	; 0x7e6 <__EEPROM_REGION_LENGTH__+0x3e6>
					}
					
					if (commandBuffer[4] == '?'){
     7ee:	80 91 07 02 	lds	r24, 0x0207	; 0x800207 <commandBuffer+0x4>
     7f2:	8f 33       	cpi	r24, 0x3F	; 63
     7f4:	91 f4       	brne	.+36     	; 0x81a <__EEPROM_REGION_LENGTH__+0x41a>
						char buffer[32];
						double2str(buffer, (*pSettings).position_min);
     7f6:	40 91 27 02 	lds	r20, 0x0227	; 0x800227 <stepper_a_settings+0x12>
     7fa:	50 91 28 02 	lds	r21, 0x0228	; 0x800228 <stepper_a_settings+0x13>
     7fe:	60 91 29 02 	lds	r22, 0x0229	; 0x800229 <stepper_a_settings+0x14>
     802:	70 91 2a 02 	lds	r23, 0x022A	; 0x80022a <stepper_a_settings+0x15>
     806:	ce 01       	movw	r24, r28
     808:	01 96       	adiw	r24, 0x01	; 1
     80a:	03 d2       	rcall	.+1030   	; 0xc12 <double2str>
						strcpy(answerString, buffer);
     80c:	be 01       	movw	r22, r28
     80e:	6f 5f       	subi	r22, 0xFF	; 255
     810:	7f 4f       	sbci	r23, 0xFF	; 255
     812:	ce 01       	movw	r24, r28
     814:	81 96       	adiw	r24, 0x21	; 33
     816:	0e 94 bd 13 	call	0x277a	; 0x277a <strcpy>
					}
				}
				//ROF Offset vom Referenzpunkt
				if (((commandBuffer[1] == 'R') || (commandBuffer[1] == 'r'))&&((commandBuffer[2] == 'O') || (commandBuffer[2] == 'o'))&&((commandBuffer[3] == 'F') || (commandBuffer[3] == 'f')))
     81a:	80 91 04 02 	lds	r24, 0x0204	; 0x800204 <commandBuffer+0x1>
     81e:	8f 7d       	andi	r24, 0xDF	; 223
     820:	82 35       	cpi	r24, 0x52	; 82
     822:	09 f0       	breq	.+2      	; 0x826 <__EEPROM_REGION_LENGTH__+0x426>
     824:	a8 c1       	rjmp	.+848    	; 0xb76 <__stack+0x77>
     826:	80 91 05 02 	lds	r24, 0x0205	; 0x800205 <commandBuffer+0x2>
     82a:	8f 7d       	andi	r24, 0xDF	; 223
     82c:	8f 34       	cpi	r24, 0x4F	; 79
     82e:	09 f0       	breq	.+2      	; 0x832 <__EEPROM_REGION_LENGTH__+0x432>
     830:	9e c1       	rjmp	.+828    	; 0xb6e <__stack+0x6f>
     832:	80 91 06 02 	lds	r24, 0x0206	; 0x800206 <commandBuffer+0x3>
     836:	8f 7d       	andi	r24, 0xDF	; 223
     838:	86 34       	cpi	r24, 0x46	; 70
     83a:	09 f0       	breq	.+2      	; 0x83e <__EEPROM_REGION_LENGTH__+0x43e>
     83c:	98 c1       	rjmp	.+816    	; 0xb6e <__stack+0x6f>
				{
					if (commandBuffer[4] == '='){
     83e:	80 91 07 02 	lds	r24, 0x0207	; 0x800207 <commandBuffer+0x4>
     842:	8d 33       	cpi	r24, 0x3D	; 61
     844:	09 f0       	breq	.+2      	; 0x848 <__EEPROM_REGION_LENGTH__+0x448>
     846:	8e c1       	rjmp	.+796    	; 0xb64 <__stack+0x65>
						(*pSettings).reference_offset = atof(commandBuffer+5);
     848:	88 e0       	ldi	r24, 0x08	; 8
     84a:	92 e0       	ldi	r25, 0x02	; 2
     84c:	0e 94 af 13 	call	0x275e	; 0x275e <atof>
     850:	60 93 2b 02 	sts	0x022B, r22	; 0x80022b <stepper_a_settings+0x16>
     854:	70 93 2c 02 	sts	0x022C, r23	; 0x80022c <stepper_a_settings+0x17>
     858:	80 93 2d 02 	sts	0x022D, r24	; 0x80022d <stepper_a_settings+0x18>
     85c:	90 93 2e 02 	sts	0x022E, r25	; 0x80022e <stepper_a_settings+0x19>
						strcpy(answerString, "ROF=");
     860:	85 e0       	ldi	r24, 0x05	; 5
     862:	ed e4       	ldi	r30, 0x4D	; 77
     864:	f1 e0       	ldi	r31, 0x01	; 1
     866:	de 01       	movw	r26, r28
     868:	91 96       	adiw	r26, 0x21	; 33
     86a:	01 90       	ld	r0, Z+
     86c:	0d 92       	st	X+, r0
     86e:	8a 95       	dec	r24
     870:	e1 f7       	brne	.-8      	; 0x86a <__EEPROM_REGION_LENGTH__+0x46a>
					}
					
					if (commandBuffer[4] == '?'){
     872:	80 91 07 02 	lds	r24, 0x0207	; 0x800207 <commandBuffer+0x4>
     876:	8f 33       	cpi	r24, 0x3F	; 63
     878:	91 f4       	brne	.+36     	; 0x89e <__EEPROM_REGION_LENGTH__+0x49e>
						char buffer[32];
						double2str(buffer, (*pSettings).reference_offset);
     87a:	40 91 2b 02 	lds	r20, 0x022B	; 0x80022b <stepper_a_settings+0x16>
     87e:	50 91 2c 02 	lds	r21, 0x022C	; 0x80022c <stepper_a_settings+0x17>
     882:	60 91 2d 02 	lds	r22, 0x022D	; 0x80022d <stepper_a_settings+0x18>
     886:	70 91 2e 02 	lds	r23, 0x022E	; 0x80022e <stepper_a_settings+0x19>
     88a:	ce 01       	movw	r24, r28
     88c:	01 96       	adiw	r24, 0x01	; 1
     88e:	c1 d1       	rcall	.+898    	; 0xc12 <double2str>
						strcpy(answerString, buffer);
     890:	be 01       	movw	r22, r28
     892:	6f 5f       	subi	r22, 0xFF	; 255
     894:	7f 4f       	sbci	r23, 0xFF	; 255
     896:	ce 01       	movw	r24, r28
     898:	81 96       	adiw	r24, 0x21	; 33
     89a:	0e 94 bd 13 	call	0x277a	; 0x277a <strcpy>
					}
				}
				
				//DIN Richtungsumkehr
				if (((commandBuffer[1] == 'D') || (commandBuffer[1] == 'd'))&&((commandBuffer[2] == 'I') || (commandBuffer[2] == 'i'))&&((commandBuffer[3] == 'N') || (commandBuffer[3] == 'n')))
     89e:	80 91 04 02 	lds	r24, 0x0204	; 0x800204 <commandBuffer+0x1>
     8a2:	8f 7d       	andi	r24, 0xDF	; 223
     8a4:	84 34       	cpi	r24, 0x44	; 68
     8a6:	09 f0       	breq	.+2      	; 0x8aa <__EEPROM_REGION_LENGTH__+0x4aa>
     8a8:	41 c0       	rjmp	.+130    	; 0x92c <__EEPROM_REGION_LENGTH__+0x52c>
     8aa:	80 91 05 02 	lds	r24, 0x0205	; 0x800205 <commandBuffer+0x2>
     8ae:	8f 7d       	andi	r24, 0xDF	; 223
     8b0:	89 34       	cpi	r24, 0x49	; 73
     8b2:	09 f0       	breq	.+2      	; 0x8b6 <__EEPROM_REGION_LENGTH__+0x4b6>
     8b4:	79 c0       	rjmp	.+242    	; 0x9a8 <__EEPROM_REGION_LENGTH__+0x5a8>
     8b6:	80 91 06 02 	lds	r24, 0x0206	; 0x800206 <commandBuffer+0x3>
     8ba:	8f 7d       	andi	r24, 0xDF	; 223
     8bc:	8e 34       	cpi	r24, 0x4E	; 78
     8be:	09 f0       	breq	.+2      	; 0x8c2 <__EEPROM_REGION_LENGTH__+0x4c2>
     8c0:	73 c0       	rjmp	.+230    	; 0x9a8 <__EEPROM_REGION_LENGTH__+0x5a8>
				{
					if (commandBuffer[4] == '=')
     8c2:	80 91 07 02 	lds	r24, 0x0207	; 0x800207 <commandBuffer+0x4>
     8c6:	8d 33       	cpi	r24, 0x3D	; 61
     8c8:	01 f5       	brne	.+64     	; 0x90a <__EEPROM_REGION_LENGTH__+0x50a>
					{
						if (commandBuffer[5] == '0')
     8ca:	80 91 08 02 	lds	r24, 0x0208	; 0x800208 <commandBuffer+0x5>
     8ce:	80 33       	cpi	r24, 0x30	; 48
     8d0:	61 f4       	brne	.+24     	; 0x8ea <__EEPROM_REGION_LENGTH__+0x4ea>
						{
							(*pSettings).invert_direction = 0;
     8d2:	10 92 2f 02 	sts	0x022F, r1	; 0x80022f <stepper_a_settings+0x1a>
							strcpy(answerString, "DIN=");
     8d6:	85 e0       	ldi	r24, 0x05	; 5
     8d8:	e2 e5       	ldi	r30, 0x52	; 82
     8da:	f1 e0       	ldi	r31, 0x01	; 1
     8dc:	de 01       	movw	r26, r28
     8de:	91 96       	adiw	r26, 0x21	; 33
     8e0:	01 90       	ld	r0, Z+
     8e2:	0d 92       	st	X+, r0
     8e4:	8a 95       	dec	r24
     8e6:	e1 f7       	brne	.-8      	; 0x8e0 <__EEPROM_REGION_LENGTH__+0x4e0>
     8e8:	5f c0       	rjmp	.+190    	; 0x9a8 <__EEPROM_REGION_LENGTH__+0x5a8>
						}
						else if (commandBuffer[5] == '1')
     8ea:	81 33       	cpi	r24, 0x31	; 49
     8ec:	09 f0       	breq	.+2      	; 0x8f0 <__EEPROM_REGION_LENGTH__+0x4f0>
     8ee:	5c c0       	rjmp	.+184    	; 0x9a8 <__EEPROM_REGION_LENGTH__+0x5a8>
						{
							(*pSettings).invert_direction = 1;
     8f0:	81 e0       	ldi	r24, 0x01	; 1
     8f2:	80 93 2f 02 	sts	0x022F, r24	; 0x80022f <stepper_a_settings+0x1a>
							strcpy(answerString, "DIN=");
     8f6:	85 e0       	ldi	r24, 0x05	; 5
     8f8:	e2 e5       	ldi	r30, 0x52	; 82
     8fa:	f1 e0       	ldi	r31, 0x01	; 1
     8fc:	de 01       	movw	r26, r28
     8fe:	91 96       	adiw	r26, 0x21	; 33
     900:	01 90       	ld	r0, Z+
     902:	0d 92       	st	X+, r0
     904:	8a 95       	dec	r24
     906:	e1 f7       	brne	.-8      	; 0x900 <__EEPROM_REGION_LENGTH__+0x500>
     908:	4f c0       	rjmp	.+158    	; 0x9a8 <__EEPROM_REGION_LENGTH__+0x5a8>
						}
					}
					if (commandBuffer[4] == '?')
     90a:	8f 33       	cpi	r24, 0x3F	; 63
     90c:	09 f0       	breq	.+2      	; 0x910 <__EEPROM_REGION_LENGTH__+0x510>
     90e:	4c c0       	rjmp	.+152    	; 0x9a8 <__EEPROM_REGION_LENGTH__+0x5a8>
					strcpy(answerString, (*pSettings).invert_direction == 1 ? "1" : "0");
     910:	80 91 2f 02 	lds	r24, 0x022F	; 0x80022f <stepper_a_settings+0x1a>
     914:	81 30       	cpi	r24, 0x01	; 1
     916:	19 f0       	breq	.+6      	; 0x91e <__EEPROM_REGION_LENGTH__+0x51e>
     918:	ed e1       	ldi	r30, 0x1D	; 29
     91a:	f1 e0       	ldi	r31, 0x01	; 1
     91c:	02 c0       	rjmp	.+4      	; 0x922 <__EEPROM_REGION_LENGTH__+0x522>
     91e:	eb e1       	ldi	r30, 0x1B	; 27
     920:	f1 e0       	ldi	r31, 0x01	; 1
     922:	80 81       	ld	r24, Z
     924:	91 81       	ldd	r25, Z+1	; 0x01
     926:	9a a3       	std	Y+34, r25	; 0x22
     928:	89 a3       	std	Y+33, r24	; 0x21
     92a:	3e c0       	rjmp	.+124    	; 0x9a8 <__EEPROM_REGION_LENGTH__+0x5a8>
				}
				//
				
				//RPL Polarität Referenzschalter: 0=OEffner, 1=Schliesser
				if (((commandBuffer[1] == 'R') || (commandBuffer[1] == 'r'))&&((commandBuffer[2] == 'P') || (commandBuffer[2] == 'p'))&&((commandBuffer[3] == 'L') || (commandBuffer[3] == 'l')))
     92c:	82 35       	cpi	r24, 0x52	; 82
     92e:	e1 f5       	brne	.+120    	; 0x9a8 <__EEPROM_REGION_LENGTH__+0x5a8>
     930:	80 91 05 02 	lds	r24, 0x0205	; 0x800205 <commandBuffer+0x2>
     934:	8f 7d       	andi	r24, 0xDF	; 223
     936:	80 35       	cpi	r24, 0x50	; 80
     938:	b9 f5       	brne	.+110    	; 0x9a8 <__EEPROM_REGION_LENGTH__+0x5a8>
     93a:	80 91 06 02 	lds	r24, 0x0206	; 0x800206 <commandBuffer+0x3>
     93e:	8f 7d       	andi	r24, 0xDF	; 223
     940:	8c 34       	cpi	r24, 0x4C	; 76
     942:	91 f5       	brne	.+100    	; 0x9a8 <__EEPROM_REGION_LENGTH__+0x5a8>
				{
					if (commandBuffer[4] == '=')
     944:	80 91 07 02 	lds	r24, 0x0207	; 0x800207 <commandBuffer+0x4>
     948:	8d 33       	cpi	r24, 0x3D	; 61
     94a:	f9 f4       	brne	.+62     	; 0x98a <__EEPROM_REGION_LENGTH__+0x58a>
					{
						if (commandBuffer[5] == '0')
     94c:	80 91 08 02 	lds	r24, 0x0208	; 0x800208 <commandBuffer+0x5>
     950:	80 33       	cpi	r24, 0x30	; 48
     952:	61 f4       	brne	.+24     	; 0x96c <__EEPROM_REGION_LENGTH__+0x56c>
						{
							(*pSettings).polarity_reference_switch = 0;
     954:	10 92 30 02 	sts	0x0230, r1	; 0x800230 <stepper_a_settings+0x1b>
							strcpy(answerString, "DIN=");
     958:	85 e0       	ldi	r24, 0x05	; 5
     95a:	e2 e5       	ldi	r30, 0x52	; 82
     95c:	f1 e0       	ldi	r31, 0x01	; 1
     95e:	de 01       	movw	r26, r28
     960:	91 96       	adiw	r26, 0x21	; 33
     962:	01 90       	ld	r0, Z+
     964:	0d 92       	st	X+, r0
     966:	8a 95       	dec	r24
     968:	e1 f7       	brne	.-8      	; 0x962 <__EEPROM_REGION_LENGTH__+0x562>
     96a:	1e c0       	rjmp	.+60     	; 0x9a8 <__EEPROM_REGION_LENGTH__+0x5a8>
						}
						else if (commandBuffer[5] == '1')
     96c:	81 33       	cpi	r24, 0x31	; 49
     96e:	e1 f4       	brne	.+56     	; 0x9a8 <__EEPROM_REGION_LENGTH__+0x5a8>
						{
							(*pSettings).polarity_reference_switch = 1;
     970:	81 e0       	ldi	r24, 0x01	; 1
     972:	80 93 30 02 	sts	0x0230, r24	; 0x800230 <stepper_a_settings+0x1b>
							strcpy(answerString, "DIN=");
     976:	85 e0       	ldi	r24, 0x05	; 5
     978:	e2 e5       	ldi	r30, 0x52	; 82
     97a:	f1 e0       	ldi	r31, 0x01	; 1
     97c:	de 01       	movw	r26, r28
     97e:	91 96       	adiw	r26, 0x21	; 33
     980:	01 90       	ld	r0, Z+
     982:	0d 92       	st	X+, r0
     984:	8a 95       	dec	r24
     986:	e1 f7       	brne	.-8      	; 0x980 <__EEPROM_REGION_LENGTH__+0x580>
     988:	0f c0       	rjmp	.+30     	; 0x9a8 <__EEPROM_REGION_LENGTH__+0x5a8>
						}
					}
					if (commandBuffer[4] == '?')
     98a:	8f 33       	cpi	r24, 0x3F	; 63
     98c:	69 f4       	brne	.+26     	; 0x9a8 <__EEPROM_REGION_LENGTH__+0x5a8>
					strcpy(answerString, (*pSettings).position_limit_enabled == 1 ? "1" : "0");
     98e:	80 91 22 02 	lds	r24, 0x0222	; 0x800222 <stepper_a_settings+0xd>
     992:	81 30       	cpi	r24, 0x01	; 1
     994:	19 f0       	breq	.+6      	; 0x99c <__EEPROM_REGION_LENGTH__+0x59c>
     996:	ed e1       	ldi	r30, 0x1D	; 29
     998:	f1 e0       	ldi	r31, 0x01	; 1
     99a:	02 c0       	rjmp	.+4      	; 0x9a0 <__EEPROM_REGION_LENGTH__+0x5a0>
     99c:	eb e1       	ldi	r30, 0x1B	; 27
     99e:	f1 e0       	ldi	r31, 0x01	; 1
     9a0:	80 81       	ld	r24, Z
     9a2:	91 81       	ldd	r25, Z+1	; 0x01
     9a4:	9a a3       	std	Y+34, r25	; 0x22
     9a6:	89 a3       	std	Y+33, r24	; 0x21
				}
				//strcpy(answerString, commandBuffer);
			
			eeprom_update_block(pSettings, (void*)STEPPER_A_SETTINGS_START_ADDR, sizeof(stepper_a_settings));
     9a8:	4c e1       	ldi	r20, 0x1C	; 28
     9aa:	50 e0       	ldi	r21, 0x00	; 0
     9ac:	60 e1       	ldi	r22, 0x10	; 16
     9ae:	70 e0       	ldi	r23, 0x00	; 0
     9b0:	85 e1       	ldi	r24, 0x15	; 21
     9b2:	92 e0       	ldi	r25, 0x02	; 2
     9b4:	0e 94 db 17 	call	0x2fb6	; 0x2fb6 <eeprom_update_block>

	}
	
	
	//Steuerbefehle
	if(driveState == DRV_STATE_RDY)
     9b8:	80 91 35 02 	lds	r24, 0x0235	; 0x800235 <driveState>
     9bc:	81 11       	cpse	r24, r1
     9be:	97 c0       	rjmp	.+302    	; 0xaee <__DATA_REGION_LENGTH__+0xee>
	{
		if ((commandBuffer[0] == 'T') || (commandBuffer[0] == 't'))
     9c0:	80 91 03 02 	lds	r24, 0x0203	; 0x800203 <commandBuffer>
     9c4:	8f 7d       	andi	r24, 0xDF	; 223
     9c6:	84 35       	cpi	r24, 0x54	; 84
     9c8:	09 f0       	breq	.+2      	; 0x9cc <__EEPROM_REGION_LENGTH__+0x5cc>
     9ca:	91 c0       	rjmp	.+290    	; 0xaee <__DATA_REGION_LENGTH__+0xee>
		{
			if ((commandBuffer[1] == 'S') || (commandBuffer[1] == 's'))
     9cc:	80 91 04 02 	lds	r24, 0x0204	; 0x800204 <commandBuffer+0x1>
     9d0:	98 2f       	mov	r25, r24
     9d2:	9f 7d       	andi	r25, 0xDF	; 223
     9d4:	93 35       	cpi	r25, 0x53	; 83
			{
				if (commandBuffer[2] == '=')
     9d6:	a9 f5       	brne	.+106    	; 0xa42 <__DATA_REGION_LENGTH__+0x42>
     9d8:	90 91 05 02 	lds	r25, 0x0205	; 0x800205 <commandBuffer+0x2>
     9dc:	9d 33       	cpi	r25, 0x3D	; 61
				{
					//Fehler beim Ausführen
					if (stepper_a_setSpeed(atof(commandBuffer+3)) == 1)
     9de:	c9 f4       	brne	.+50     	; 0xa12 <__DATA_REGION_LENGTH__+0x12>
     9e0:	86 e0       	ldi	r24, 0x06	; 6
     9e2:	92 e0       	ldi	r25, 0x02	; 2
     9e4:	0e 94 af 13 	call	0x275e	; 0x275e <atof>
     9e8:	25 d2       	rcall	.+1098   	; 0xe34 <stepper_a_setSpeed>
     9ea:	81 30       	cpi	r24, 0x01	; 1
     9ec:	49 f4       	brne	.+18     	; 0xa00 <__DATA_REGION_LENGTH__>
					strcpy(answerString, "TS?");
     9ee:	84 e5       	ldi	r24, 0x54	; 84
     9f0:	93 e5       	ldi	r25, 0x53	; 83
     9f2:	9a a3       	std	Y+34, r25	; 0x22
     9f4:	89 a3       	std	Y+33, r24	; 0x21
     9f6:	8f e3       	ldi	r24, 0x3F	; 63
     9f8:	90 e0       	ldi	r25, 0x00	; 0
     9fa:	9c a3       	std	Y+36, r25	; 0x24
     9fc:	8b a3       	std	Y+35, r24	; 0x23
     9fe:	21 c0       	rjmp	.+66     	; 0xa42 <__DATA_REGION_LENGTH__+0x42>
					
					//Befehl Erkannt
					else
					strcpy(answerString, "TS=");
     a00:	84 e5       	ldi	r24, 0x54	; 84
     a02:	93 e5       	ldi	r25, 0x53	; 83
     a04:	9a a3       	std	Y+34, r25	; 0x22
     a06:	89 a3       	std	Y+33, r24	; 0x21
     a08:	8d e3       	ldi	r24, 0x3D	; 61
     a0a:	90 e0       	ldi	r25, 0x00	; 0
     a0c:	9c a3       	std	Y+36, r25	; 0x24

				}
				else if (commandBuffer[2] == '?')
     a0e:	8b a3       	std	Y+35, r24	; 0x23
     a10:	18 c0       	rjmp	.+48     	; 0xa42 <__DATA_REGION_LENGTH__+0x42>
     a12:	9f 33       	cpi	r25, 0x3F	; 63
				{
					//TS?
					char buffer[32];
					double2str(buffer, stepper_a_getSpeed());
     a14:	09 f0       	breq	.+2      	; 0xa18 <__DATA_REGION_LENGTH__+0x18>
     a16:	7e c0       	rjmp	.+252    	; 0xb14 <__stack+0x15>
     a18:	1a d3       	rcall	.+1588   	; 0x104e <stepper_a_getSpeed>
     a1a:	ab 01       	movw	r20, r22
     a1c:	bc 01       	movw	r22, r24
     a1e:	ce 01       	movw	r24, r28
     a20:	01 96       	adiw	r24, 0x01	; 1
     a22:	f7 d0       	rcall	.+494    	; 0xc12 <double2str>
					strcpy(answerString, "TS=");
     a24:	84 e5       	ldi	r24, 0x54	; 84
     a26:	93 e5       	ldi	r25, 0x53	; 83
     a28:	9a a3       	std	Y+34, r25	; 0x22
     a2a:	89 a3       	std	Y+33, r24	; 0x21
     a2c:	8d e3       	ldi	r24, 0x3D	; 61
     a2e:	90 e0       	ldi	r25, 0x00	; 0
     a30:	9c a3       	std	Y+36, r25	; 0x24
     a32:	8b a3       	std	Y+35, r24	; 0x23
					strcat(answerString, buffer);
     a34:	be 01       	movw	r22, r28
     a36:	6f 5f       	subi	r22, 0xFF	; 255
     a38:	7f 4f       	sbci	r23, 0xFF	; 255
     a3a:	ce 01       	movw	r24, r28
     a3c:	81 96       	adiw	r24, 0x21	; 33
     a3e:	0e 94 b2 13 	call	0x2764	; 0x2764 <strcat>
				}
			}
			if ((commandBuffer[1] == 'P') || (commandBuffer[1] == 'p'))
     a42:	80 91 04 02 	lds	r24, 0x0204	; 0x800204 <commandBuffer+0x1>
     a46:	80 35       	cpi	r24, 0x50	; 80
     a48:	11 f0       	breq	.+4      	; 0xa4e <__DATA_REGION_LENGTH__+0x4e>
     a4a:	80 37       	cpi	r24, 0x70	; 112
			{
				if (commandBuffer[2] == '=')
     a4c:	a1 f5       	brne	.+104    	; 0xab6 <__DATA_REGION_LENGTH__+0xb6>
     a4e:	80 91 05 02 	lds	r24, 0x0205	; 0x800205 <commandBuffer+0x2>
     a52:	8d 33       	cpi	r24, 0x3D	; 61
				{
					if (stepper_a_setSetPoint(atof(commandBuffer+3)) == 1)
     a54:	c9 f4       	brne	.+50     	; 0xa88 <__DATA_REGION_LENGTH__+0x88>
     a56:	86 e0       	ldi	r24, 0x06	; 6
     a58:	92 e0       	ldi	r25, 0x02	; 2
     a5a:	0e 94 af 13 	call	0x275e	; 0x275e <atof>
     a5e:	8c d1       	rcall	.+792    	; 0xd78 <stepper_a_setSetPoint>
     a60:	81 30       	cpi	r24, 0x01	; 1
     a62:	49 f4       	brne	.+18     	; 0xa76 <__DATA_REGION_LENGTH__+0x76>
					strcpy(answerString, "TP?");
     a64:	84 e5       	ldi	r24, 0x54	; 84
     a66:	90 e5       	ldi	r25, 0x50	; 80
     a68:	9a a3       	std	Y+34, r25	; 0x22
     a6a:	89 a3       	std	Y+33, r24	; 0x21
     a6c:	8f e3       	ldi	r24, 0x3F	; 63
     a6e:	90 e0       	ldi	r25, 0x00	; 0
     a70:	9c a3       	std	Y+36, r25	; 0x24
     a72:	8b a3       	std	Y+35, r24	; 0x23
					else
					strcpy(answerString, "TP=");
     a74:	20 c0       	rjmp	.+64     	; 0xab6 <__DATA_REGION_LENGTH__+0xb6>
     a76:	84 e5       	ldi	r24, 0x54	; 84
     a78:	90 e5       	ldi	r25, 0x50	; 80
     a7a:	9a a3       	std	Y+34, r25	; 0x22
     a7c:	89 a3       	std	Y+33, r24	; 0x21
     a7e:	8d e3       	ldi	r24, 0x3D	; 61
     a80:	90 e0       	ldi	r25, 0x00	; 0
     a82:	9c a3       	std	Y+36, r25	; 0x24
				}
				else if (commandBuffer[2] == '?')
     a84:	8b a3       	std	Y+35, r24	; 0x23
     a86:	17 c0       	rjmp	.+46     	; 0xab6 <__DATA_REGION_LENGTH__+0xb6>
				{
					char buffer[32];
					double2str(buffer, stepper_a_getValue());
     a88:	8f 33       	cpi	r24, 0x3F	; 63
     a8a:	a9 f4       	brne	.+42     	; 0xab6 <__DATA_REGION_LENGTH__+0xb6>
     a8c:	be d1       	rcall	.+892    	; 0xe0a <stepper_a_getValue>
     a8e:	ab 01       	movw	r20, r22
     a90:	bc 01       	movw	r22, r24
     a92:	ce 01       	movw	r24, r28
     a94:	01 96       	adiw	r24, 0x01	; 1
     a96:	bd d0       	rcall	.+378    	; 0xc12 <double2str>
					strcpy(answerString, "TP=");
     a98:	84 e5       	ldi	r24, 0x54	; 84
     a9a:	90 e5       	ldi	r25, 0x50	; 80
     a9c:	9a a3       	std	Y+34, r25	; 0x22
     a9e:	89 a3       	std	Y+33, r24	; 0x21
     aa0:	8d e3       	ldi	r24, 0x3D	; 61
     aa2:	90 e0       	ldi	r25, 0x00	; 0
     aa4:	9c a3       	std	Y+36, r25	; 0x24
					strcat(answerString, buffer);
     aa6:	8b a3       	std	Y+35, r24	; 0x23
     aa8:	be 01       	movw	r22, r28
     aaa:	6f 5f       	subi	r22, 0xFF	; 255
     aac:	7f 4f       	sbci	r23, 0xFF	; 255
     aae:	ce 01       	movw	r24, r28
     ab0:	81 96       	adiw	r24, 0x21	; 33
     ab2:	0e 94 b2 13 	call	0x2764	; 0x2764 <strcat>
				}
			}
			if ((commandBuffer[1] == 'H') || (commandBuffer[1] == 'h'))
     ab6:	80 91 04 02 	lds	r24, 0x0204	; 0x800204 <commandBuffer+0x1>
     aba:	8f 7d       	andi	r24, 0xDF	; 223
			{
				stepper_a_home();
     abc:	88 34       	cpi	r24, 0x48	; 72
     abe:	49 f4       	brne	.+18     	; 0xad2 <__DATA_REGION_LENGTH__+0xd2>
				strcpy(answerString, "TH=");
     ac0:	21 d1       	rcall	.+578    	; 0xd04 <stepper_a_home>
     ac2:	84 e5       	ldi	r24, 0x54	; 84
     ac4:	98 e4       	ldi	r25, 0x48	; 72
     ac6:	9a a3       	std	Y+34, r25	; 0x22
     ac8:	89 a3       	std	Y+33, r24	; 0x21
     aca:	8d e3       	ldi	r24, 0x3D	; 61
     acc:	90 e0       	ldi	r25, 0x00	; 0
     ace:	9c a3       	std	Y+36, r25	; 0x24
			}
			if ((commandBuffer[1] == 'Z') || (commandBuffer[1] == 'z'))
     ad0:	8b a3       	std	Y+35, r24	; 0x23
     ad2:	80 91 04 02 	lds	r24, 0x0204	; 0x800204 <commandBuffer+0x1>
			{
				stepper_a_zero();
     ad6:	8f 7d       	andi	r24, 0xDF	; 223
     ad8:	8a 35       	cpi	r24, 0x5A	; 90
				strcpy(answerString, "TZ=");
     ada:	49 f4       	brne	.+18     	; 0xaee <__DATA_REGION_LENGTH__+0xee>
     adc:	2b d1       	rcall	.+598    	; 0xd34 <stepper_a_zero>
     ade:	84 e5       	ldi	r24, 0x54	; 84
     ae0:	9a e5       	ldi	r25, 0x5A	; 90
     ae2:	9a a3       	std	Y+34, r25	; 0x22
     ae4:	89 a3       	std	Y+33, r24	; 0x21
     ae6:	8d e3       	ldi	r24, 0x3D	; 61
     ae8:	90 e0       	ldi	r25, 0x00	; 0
	}

	
	
	//Sending the AnswerString
	CDC_Device_SendString(pInterface, answerString);
     aea:	9c a3       	std	Y+36, r25	; 0x24
     aec:	8b a3       	std	Y+35, r24	; 0x23
     aee:	be 01       	movw	r22, r28
     af0:	6f 5d       	subi	r22, 0xDF	; 223
     af2:	7f 4f       	sbci	r23, 0xFF	; 255
     af4:	c8 01       	movw	r24, r16
	CDC_Device_SendByte(pInterface, 0x0D);
     af6:	76 d4       	rcall	.+2284   	; 0x13e4 <CDC_Device_SendString>
     af8:	6d e0       	ldi	r22, 0x0D	; 13
     afa:	c8 01       	movw	r24, r16
     afc:	95 d4       	rcall	.+2346   	; 0x1428 <CDC_Device_SendByte>
	//Echo Input to test
	//CDC_Device_SendString(pInterface, commandBuffer);
	


	commandState = CMD_STATE_EXECUTED;
     afe:	10 92 10 02 	sts	0x0210, r1	; 0x800210 <commandState>
}


}
     b02:	40 c0       	rjmp	.+128    	; 0xb84 <__stack+0x85>
		if (((commandBuffer[0] == 'E') || (commandBuffer[0] == 'e'))&&((commandBuffer[1] == 'S') || (commandBuffer[1] == 's'))&&((commandBuffer[2] == 'T') || (commandBuffer[2] == 't'))){
			emergencyStop();
			strcpy(answerString, "EST");
		}
		//Freigabe Not-Halt
		if (((commandBuffer[0] == 'E') || (commandBuffer[0] == 'e'))&&((commandBuffer[1] == 'S') || (commandBuffer[1] == 's'))&&((commandBuffer[2] == 'R') || (commandBuffer[2] == 'r'))){
     b04:	85 34       	cpi	r24, 0x45	; 69
     b06:	09 f4       	brne	.+2      	; 0xb0a <__stack+0xb>
     b08:	9a cc       	rjmp	.-1740   	; 0x43e <__EEPROM_REGION_LENGTH__+0x3e>
     b0a:	59 cc       	rjmp	.-1870   	; 0x3be <handleCommands+0xdc>
						double2str(buffer, (*pSettings).position_max);
						strcpy(answerString, buffer);
					}
				}
				//PMN Minimale Position
				if (((commandBuffer[1] == 'P') || (commandBuffer[1] == 'p'))&&((commandBuffer[2] == 'M') || (commandBuffer[2] == 'm'))&&((commandBuffer[3] == 'N') || (commandBuffer[3] == 'n')))
     b0c:	80 35       	cpi	r24, 0x50	; 80
     b0e:	09 f0       	breq	.+2      	; 0xb12 <__stack+0x13>
     b10:	49 ce       	rjmp	.-878    	; 0x7a4 <__EEPROM_REGION_LENGTH__+0x3a4>
     b12:	c5 ce       	rjmp	.-630    	; 0x89e <__EEPROM_REGION_LENGTH__+0x49e>
					double2str(buffer, stepper_a_getSpeed());
					strcpy(answerString, "TS=");
					strcat(answerString, buffer);
				}
			}
			if ((commandBuffer[1] == 'P') || (commandBuffer[1] == 'p'))
     b14:	80 35       	cpi	r24, 0x50	; 80
     b16:	09 f0       	breq	.+2      	; 0xb1a <__stack+0x1b>
     b18:	98 cf       	rjmp	.-208    	; 0xa4a <__DATA_REGION_LENGTH__+0x4a>
     b1a:	db cf       	rjmp	.-74     	; 0xad2 <__DATA_REGION_LENGTH__+0xd2>
		if (((commandBuffer[0] == 'E') || (commandBuffer[0] == 'e'))&&((commandBuffer[1] == 'S') || (commandBuffer[1] == 's'))&&((commandBuffer[2] == 'T') || (commandBuffer[2] == 't'))){
			emergencyStop();
			strcpy(answerString, "EST");
		}
		//Freigabe Not-Halt
		if (((commandBuffer[0] == 'E') || (commandBuffer[0] == 'e'))&&((commandBuffer[1] == 'S') || (commandBuffer[1] == 's'))&&((commandBuffer[2] == 'R') || (commandBuffer[2] == 'r'))){
     b1c:	80 91 04 02 	lds	r24, 0x0204	; 0x800204 <commandBuffer+0x1>
     b20:	8f 7d       	andi	r24, 0xDF	; 223
     b22:	83 35       	cpi	r24, 0x53	; 83
     b24:	09 f0       	breq	.+2      	; 0xb28 <__stack+0x29>
     b26:	8b cc       	rjmp	.-1770   	; 0x43e <__EEPROM_REGION_LENGTH__+0x3e>
     b28:	51 cc       	rjmp	.-1886   	; 0x3cc <handleCommands+0xea>
			driveHalt();
			driveState = DRV_STATE_PARAM;
			strcpy(answerString, "PARAM");
		}
		//Parametrierbefehlea
		if(driveState == DRV_STATE_PARAM)
     b2a:	80 91 35 02 	lds	r24, 0x0235	; 0x800235 <driveState>
     b2e:	82 30       	cpi	r24, 0x02	; 2
     b30:	09 f0       	breq	.+2      	; 0xb34 <__stack+0x35>
     b32:	42 cf       	rjmp	.-380    	; 0x9b8 <__EEPROM_REGION_LENGTH__+0x5b8>
     b34:	b3 cc       	rjmp	.-1690   	; 0x49c <__EEPROM_REGION_LENGTH__+0x9c>
					}
					if (commandBuffer[4] == '?')
					strcpy(answerString, (*pSettings).speed_max_enabled == 1 ? "1" : "0");
				}
				//VMX Maximalgeschwindigkeit
				if (((commandBuffer[1] == 'V') || (commandBuffer[1] == 'v'))&&((commandBuffer[2] == 'M') || (commandBuffer[2] == 'm'))&&((commandBuffer[3] == 'X') || (commandBuffer[3] == 'x')))
     b36:	8d 34       	cpi	r24, 0x4D	; 77
     b38:	09 f0       	breq	.+2      	; 0xb3c <__stack+0x3d>
     b3a:	78 cd       	rjmp	.-1296   	; 0x62c <__EEPROM_REGION_LENGTH__+0x22c>
     b3c:	3d cd       	rjmp	.-1414   	; 0x5b8 <__EEPROM_REGION_LENGTH__+0x1b8>
					if (commandBuffer[4] == '='){
						(*pSettings).speed_max = atof(commandBuffer+5);
						strcpy(answerString, "VMX=");
					}
					
					if (commandBuffer[4] == '?'){
     b3e:	80 91 07 02 	lds	r24, 0x0207	; 0x800207 <commandBuffer+0x4>
     b42:	8f 33       	cpi	r24, 0x3F	; 63
     b44:	09 f0       	breq	.+2      	; 0xb48 <__stack+0x49>
     b46:	72 cd       	rjmp	.-1308   	; 0x62c <__EEPROM_REGION_LENGTH__+0x22c>
     b48:	5a cd       	rjmp	.-1356   	; 0x5fe <__EEPROM_REGION_LENGTH__+0x1fe>
					if (commandBuffer[4] == '='){
						(*pSettings).speed_default = atof(commandBuffer+5);
						strcpy(answerString, "VDF=");
					}
					
					if (commandBuffer[4] == '?'){
     b4a:	80 91 07 02 	lds	r24, 0x0207	; 0x800207 <commandBuffer+0x4>
     b4e:	8f 33       	cpi	r24, 0x3F	; 63
     b50:	09 f0       	breq	.+2      	; 0xb54 <__stack+0x55>
     b52:	24 ce       	rjmp	.-952    	; 0x79c <__EEPROM_REGION_LENGTH__+0x39c>
     b54:	95 cd       	rjmp	.-1238   	; 0x680 <__EEPROM_REGION_LENGTH__+0x280>
					if (commandBuffer[4] == '?')
					strcpy(answerString, (*pSettings).position_limit_enabled == 1 ? "1" : "0");
				}
				
				//PMX Maximale Position
				if (((commandBuffer[1] == 'P') || (commandBuffer[1] == 'p'))&&((commandBuffer[2] == 'M') || (commandBuffer[2] == 'm'))&&((commandBuffer[3] == 'X') || (commandBuffer[3] == 'x')))
     b56:	9d 34       	cpi	r25, 0x4D	; 77
     b58:	c9 f6       	brne	.-78     	; 0xb0c <__stack+0xd>
     b5a:	ec cd       	rjmp	.-1064   	; 0x734 <__EEPROM_REGION_LENGTH__+0x334>
						strcpy(answerString, buffer);
					}
				}
				
				//DIN Richtungsumkehr
				if (((commandBuffer[1] == 'D') || (commandBuffer[1] == 'd'))&&((commandBuffer[2] == 'I') || (commandBuffer[2] == 'i'))&&((commandBuffer[3] == 'N') || (commandBuffer[3] == 'n')))
     b5c:	80 91 04 02 	lds	r24, 0x0204	; 0x800204 <commandBuffer+0x1>
     b60:	8f 7d       	andi	r24, 0xDF	; 223
     b62:	e4 ce       	rjmp	.-568    	; 0x92c <__EEPROM_REGION_LENGTH__+0x52c>
					if (commandBuffer[4] == '='){
						(*pSettings).reference_offset = atof(commandBuffer+5);
						strcpy(answerString, "ROF=");
					}
					
					if (commandBuffer[4] == '?'){
     b64:	80 91 07 02 	lds	r24, 0x0207	; 0x800207 <commandBuffer+0x4>
     b68:	8f 33       	cpi	r24, 0x3F	; 63
     b6a:	c1 f7       	brne	.-16     	; 0xb5c <__stack+0x5d>
     b6c:	86 ce       	rjmp	.-756    	; 0x87a <__EEPROM_REGION_LENGTH__+0x47a>
						strcpy(answerString, buffer);
					}
				}
				
				//DIN Richtungsumkehr
				if (((commandBuffer[1] == 'D') || (commandBuffer[1] == 'd'))&&((commandBuffer[2] == 'I') || (commandBuffer[2] == 'i'))&&((commandBuffer[3] == 'N') || (commandBuffer[3] == 'n')))
     b6e:	80 91 04 02 	lds	r24, 0x0204	; 0x800204 <commandBuffer+0x1>
     b72:	8f 7d       	andi	r24, 0xDF	; 223
     b74:	db ce       	rjmp	.-586    	; 0x92c <__EEPROM_REGION_LENGTH__+0x52c>
     b76:	80 91 04 02 	lds	r24, 0x0204	; 0x800204 <commandBuffer+0x1>
     b7a:	8f 7d       	andi	r24, 0xDF	; 223
     b7c:	84 34       	cpi	r24, 0x44	; 68
     b7e:	09 f0       	breq	.+2      	; 0xb82 <__stack+0x83>
     b80:	13 cf       	rjmp	.-474    	; 0x9a8 <__EEPROM_REGION_LENGTH__+0x5a8>
     b82:	93 ce       	rjmp	.-730    	; 0x8aa <__EEPROM_REGION_LENGTH__+0x4aa>

	commandState = CMD_STATE_EXECUTED;
}


}
     b84:	e0 96       	adiw	r28, 0x30	; 48
     b86:	0f b6       	in	r0, 0x3f	; 63
     b88:	f8 94       	cli
     b8a:	de bf       	out	0x3e, r29	; 62
     b8c:	0f be       	out	0x3f, r0	; 63
     b8e:	cd bf       	out	0x3d, r28	; 61
     b90:	df 91       	pop	r29
     b92:	cf 91       	pop	r28
     b94:	1f 91       	pop	r17
     b96:	0f 91       	pop	r16
     b98:	08 95       	ret

00000b9a <CALLBACK_USB_GetDescriptor>:
	const uint8_t  DescriptorNumber = (wValue & 0xFF);

	const void* Address = NULL;
	uint16_t    Size    = NO_DESCRIPTOR;

	switch (DescriptorType)
     b9a:	29 2f       	mov	r18, r25
     b9c:	33 27       	eor	r19, r19
     b9e:	22 30       	cpi	r18, 0x02	; 2
     ba0:	31 05       	cpc	r19, r1
     ba2:	59 f0       	breq	.+22     	; 0xbba <CALLBACK_USB_GetDescriptor+0x20>
     ba4:	23 30       	cpi	r18, 0x03	; 3
     ba6:	31 05       	cpc	r19, r1
     ba8:	69 f0       	breq	.+26     	; 0xbc4 <CALLBACK_USB_GetDescriptor+0x2a>
     baa:	21 30       	cpi	r18, 0x01	; 1
     bac:	31 05       	cpc	r19, r1
     bae:	21 f5       	brne	.+72     	; 0xbf8 <CALLBACK_USB_GetDescriptor+0x5e>
	{
		case DTYPE_Device:
			Address = &DeviceDescriptor;
			Size    = sizeof(USB_Descriptor_Device_t);
     bb0:	82 e1       	ldi	r24, 0x12	; 18
     bb2:	90 e0       	ldi	r25, 0x00	; 0
	uint16_t    Size    = NO_DESCRIPTOR;

	switch (DescriptorType)
	{
		case DTYPE_Device:
			Address = &DeviceDescriptor;
     bb4:	25 e7       	ldi	r18, 0x75	; 117
     bb6:	31 e0       	ldi	r19, 0x01	; 1
     bb8:	28 c0       	rjmp	.+80     	; 0xc0a <CALLBACK_USB_GetDescriptor+0x70>
			Size    = sizeof(USB_Descriptor_Device_t);
			break;
		case DTYPE_Configuration:
			Address = &ConfigurationDescriptor;
			Size    = sizeof(USB_Descriptor_Configuration_t);
     bba:	8e e3       	ldi	r24, 0x3E	; 62
     bbc:	90 e0       	ldi	r25, 0x00	; 0
		case DTYPE_Device:
			Address = &DeviceDescriptor;
			Size    = sizeof(USB_Descriptor_Device_t);
			break;
		case DTYPE_Configuration:
			Address = &ConfigurationDescriptor;
     bbe:	27 e3       	ldi	r18, 0x37	; 55
     bc0:	31 e0       	ldi	r19, 0x01	; 1
			Size    = sizeof(USB_Descriptor_Configuration_t);
			break;
     bc2:	23 c0       	rjmp	.+70     	; 0xc0a <CALLBACK_USB_GetDescriptor+0x70>
		case DTYPE_String:
			switch (DescriptorNumber)
     bc4:	99 27       	eor	r25, r25
     bc6:	81 30       	cpi	r24, 0x01	; 1
     bc8:	91 05       	cpc	r25, r1
     bca:	51 f0       	breq	.+20     	; 0xbe0 <CALLBACK_USB_GetDescriptor+0x46>
     bcc:	18 f0       	brcs	.+6      	; 0xbd4 <CALLBACK_USB_GetDescriptor+0x3a>
     bce:	02 97       	sbiw	r24, 0x02	; 2
     bd0:	69 f0       	breq	.+26     	; 0xbec <CALLBACK_USB_GetDescriptor+0x52>
     bd2:	17 c0       	rjmp	.+46     	; 0xc02 <CALLBACK_USB_GetDescriptor+0x68>
			{
				case STRING_ID_Language:
					Address = &LanguageString;
					Size    = pgm_read_byte(&LanguageString.Header.Size);
     bd4:	e3 e3       	ldi	r30, 0x33	; 51
     bd6:	f1 e0       	ldi	r31, 0x01	; 1
     bd8:	84 91       	lpm	r24, Z
     bda:	90 e0       	ldi	r25, 0x00	; 0
			break;
		case DTYPE_String:
			switch (DescriptorNumber)
			{
				case STRING_ID_Language:
					Address = &LanguageString;
     bdc:	9f 01       	movw	r18, r30
					Size    = pgm_read_byte(&LanguageString.Header.Size);
					break;
     bde:	15 c0       	rjmp	.+42     	; 0xc0a <CALLBACK_USB_GetDescriptor+0x70>
				case STRING_ID_Manufacturer:
					Address = &ManufacturerString;
					Size    = pgm_read_byte(&ManufacturerString.Header.Size);
     be0:	e5 e1       	ldi	r30, 0x15	; 21
     be2:	f1 e0       	ldi	r31, 0x01	; 1
     be4:	84 91       	lpm	r24, Z
     be6:	90 e0       	ldi	r25, 0x00	; 0
				case STRING_ID_Language:
					Address = &LanguageString;
					Size    = pgm_read_byte(&LanguageString.Header.Size);
					break;
				case STRING_ID_Manufacturer:
					Address = &ManufacturerString;
     be8:	9f 01       	movw	r18, r30
					Size    = pgm_read_byte(&ManufacturerString.Header.Size);
					break;
     bea:	0f c0       	rjmp	.+30     	; 0xc0a <CALLBACK_USB_GetDescriptor+0x70>
				case STRING_ID_Product:
					Address = &ProductString;
					Size    = pgm_read_byte(&ProductString.Header.Size);
     bec:	e7 ee       	ldi	r30, 0xE7	; 231
     bee:	f0 e0       	ldi	r31, 0x00	; 0
     bf0:	84 91       	lpm	r24, Z
     bf2:	90 e0       	ldi	r25, 0x00	; 0
				case STRING_ID_Manufacturer:
					Address = &ManufacturerString;
					Size    = pgm_read_byte(&ManufacturerString.Header.Size);
					break;
				case STRING_ID_Product:
					Address = &ProductString;
     bf4:	9f 01       	movw	r18, r30
					Size    = pgm_read_byte(&ProductString.Header.Size);
					break;
     bf6:	09 c0       	rjmp	.+18     	; 0xc0a <CALLBACK_USB_GetDescriptor+0x70>
{
	const uint8_t  DescriptorType   = (wValue >> 8);
	const uint8_t  DescriptorNumber = (wValue & 0xFF);

	const void* Address = NULL;
	uint16_t    Size    = NO_DESCRIPTOR;
     bf8:	80 e0       	ldi	r24, 0x00	; 0
     bfa:	90 e0       	ldi	r25, 0x00	; 0
                                    const void** const DescriptorAddress)
{
	const uint8_t  DescriptorType   = (wValue >> 8);
	const uint8_t  DescriptorNumber = (wValue & 0xFF);

	const void* Address = NULL;
     bfc:	20 e0       	ldi	r18, 0x00	; 0
     bfe:	30 e0       	ldi	r19, 0x00	; 0
     c00:	04 c0       	rjmp	.+8      	; 0xc0a <CALLBACK_USB_GetDescriptor+0x70>
	uint16_t    Size    = NO_DESCRIPTOR;
     c02:	80 e0       	ldi	r24, 0x00	; 0
     c04:	90 e0       	ldi	r25, 0x00	; 0
                                    const void** const DescriptorAddress)
{
	const uint8_t  DescriptorType   = (wValue >> 8);
	const uint8_t  DescriptorNumber = (wValue & 0xFF);

	const void* Address = NULL;
     c06:	20 e0       	ldi	r18, 0x00	; 0
     c08:	30 e0       	ldi	r19, 0x00	; 0
			}

			break;
	}

	*DescriptorAddress = Address;
     c0a:	fa 01       	movw	r30, r20
     c0c:	31 83       	std	Z+1, r19	; 0x01
     c0e:	20 83       	st	Z, r18
	return Size;
}
     c10:	08 95       	ret

00000c12 <double2str>:
*  Author: michaelloose
*/

#include "headers.h"

void double2str(char* buf, double val){
     c12:	8f 92       	push	r8
     c14:	9f 92       	push	r9
     c16:	af 92       	push	r10
     c18:	bf 92       	push	r11
     c1a:	cf 92       	push	r12
     c1c:	df 92       	push	r13
     c1e:	ef 92       	push	r14
     c20:	ff 92       	push	r15
     c22:	0f 93       	push	r16
     c24:	1f 93       	push	r17
     c26:	cf 93       	push	r28
     c28:	df 93       	push	r29
     c2a:	18 2f       	mov	r17, r24
     c2c:	09 2f       	mov	r16, r25
     c2e:	6a 01       	movw	r12, r20
     c30:	7b 01       	movw	r14, r22

	char *tmpSign = (val < 0) ? "-" : "";
     c32:	20 e0       	ldi	r18, 0x00	; 0
     c34:	30 e0       	ldi	r19, 0x00	; 0
     c36:	a9 01       	movw	r20, r18
     c38:	c7 01       	movw	r24, r14
     c3a:	b6 01       	movw	r22, r12
     c3c:	0e 94 b2 11 	call	0x2364	; 0x2364 <__cmpsf2>
     c40:	88 23       	and	r24, r24
     c42:	64 f0       	brlt	.+24     	; 0xc5c <double2str+0x4a>
	double tmpVal = (val < 0) ? -val : val;
     c44:	20 e0       	ldi	r18, 0x00	; 0
     c46:	30 e0       	ldi	r19, 0x00	; 0
     c48:	a9 01       	movw	r20, r18
     c4a:	c7 01       	movw	r24, r14
     c4c:	b6 01       	movw	r22, r12
     c4e:	0e 94 b2 11 	call	0x2364	; 0x2364 <__cmpsf2>
     c52:	88 23       	and	r24, r24
     c54:	54 f4       	brge	.+20     	; 0xc6a <double2str+0x58>

#include "headers.h"

void double2str(char* buf, double val){

	char *tmpSign = (val < 0) ? "-" : "";
     c56:	c7 e6       	ldi	r28, 0x67	; 103
     c58:	d1 e0       	ldi	r29, 0x01	; 1
     c5a:	02 c0       	rjmp	.+4      	; 0xc60 <double2str+0x4e>
     c5c:	c7 e5       	ldi	r28, 0x57	; 87
     c5e:	d1 e0       	ldi	r29, 0x01	; 1
	double tmpVal = (val < 0) ? -val : val;
     c60:	f7 fa       	bst	r15, 7
     c62:	f0 94       	com	r15
     c64:	f7 f8       	bld	r15, 7
     c66:	f0 94       	com	r15
     c68:	02 c0       	rjmp	.+4      	; 0xc6e <double2str+0x5c>

#include "headers.h"

void double2str(char* buf, double val){

	char *tmpSign = (val < 0) ? "-" : "";
     c6a:	c7 e6       	ldi	r28, 0x67	; 103
     c6c:	d1 e0       	ldi	r29, 0x01	; 1
	double tmpVal = (val < 0) ? -val : val;

	int tmpInt1 = tmpVal;                  // Get the integer (678).
     c6e:	c7 01       	movw	r24, r14
     c70:	b6 01       	movw	r22, r12
     c72:	0e 94 1e 12 	call	0x243c	; 0x243c <__fixsfsi>
     c76:	4b 01       	movw	r8, r22
     c78:	5c 01       	movw	r10, r24
	double tmpFrac = tmpVal - tmpInt1;      // Get fraction (0.0123).
	int tmpInt2 = trunc(tmpFrac * 10000);  // Turn into integer (123).
     c7a:	07 2e       	mov	r0, r23
     c7c:	00 0c       	add	r0, r0
     c7e:	88 0b       	sbc	r24, r24
     c80:	99 0b       	sbc	r25, r25
     c82:	0e 94 51 12 	call	0x24a2	; 0x24a2 <__floatsisf>
     c86:	9b 01       	movw	r18, r22
     c88:	ac 01       	movw	r20, r24
     c8a:	c7 01       	movw	r24, r14
     c8c:	b6 01       	movw	r22, r12
     c8e:	0e 94 4d 11 	call	0x229a	; 0x229a <__subsf3>
     c92:	20 e0       	ldi	r18, 0x00	; 0
     c94:	30 e4       	ldi	r19, 0x40	; 64
     c96:	4c e1       	ldi	r20, 0x1C	; 28
     c98:	56 e4       	ldi	r21, 0x46	; 70
     c9a:	0e 94 05 13 	call	0x260a	; 0x260a <__mulsf3>
     c9e:	0e 94 68 13 	call	0x26d0	; 0x26d0 <trunc>

	// Print as parts, note that you need 0-padding for fractional bit.

	sprintf (buf, "%s%d.%04d", tmpSign, tmpInt1, tmpInt2);
     ca2:	0e 94 1e 12 	call	0x243c	; 0x243c <__fixsfsi>
     ca6:	7f 93       	push	r23
     ca8:	6f 93       	push	r22
     caa:	9f 92       	push	r9
     cac:	8f 92       	push	r8
     cae:	df 93       	push	r29
     cb0:	cf 93       	push	r28
     cb2:	89 e5       	ldi	r24, 0x59	; 89
     cb4:	91 e0       	ldi	r25, 0x01	; 1
     cb6:	9f 93       	push	r25
     cb8:	8f 93       	push	r24
     cba:	0f 93       	push	r16
     cbc:	1f 93       	push	r17
     cbe:	0e 94 c4 13 	call	0x2788	; 0x2788 <sprintf>
	
     cc2:	8d b7       	in	r24, 0x3d	; 61
     cc4:	9e b7       	in	r25, 0x3e	; 62
     cc6:	0a 96       	adiw	r24, 0x0a	; 10
     cc8:	0f b6       	in	r0, 0x3f	; 63
     cca:	f8 94       	cli
     ccc:	9e bf       	out	0x3e, r25	; 62
     cce:	0f be       	out	0x3f, r0	; 63
     cd0:	8d bf       	out	0x3d, r24	; 61
     cd2:	df 91       	pop	r29
     cd4:	cf 91       	pop	r28
     cd6:	1f 91       	pop	r17
     cd8:	0f 91       	pop	r16
     cda:	ff 90       	pop	r15
     cdc:	ef 90       	pop	r14
     cde:	df 90       	pop	r13
     ce0:	cf 90       	pop	r12
     ce2:	bf 90       	pop	r11
     ce4:	af 90       	pop	r10
     ce6:	9f 90       	pop	r9
     ce8:	8f 90       	pop	r8
     cea:	08 95       	ret

00000cec <driveHalt>:

#include "headers.h"


void driveHalt(){
	stepper_a_halt();
     cec:	34 c0       	rjmp	.+104    	; 0xd56 <stepper_a_halt>
     cee:	08 95       	ret

00000cf0 <emergencyStop>:
}
void emergencyStop(void){
	driveState = DRV_STATE_ESTOP;
     cf0:	81 e0       	ldi	r24, 0x01	; 1
     cf2:	80 93 35 02 	sts	0x0235, r24	; 0x800235 <driveState>
	//Enable auf LOW setzen
	STEPPER_A_ENABLE_PORT |= (1<<STEPPER_A_ENABLE_N);
     cf6:	2c 9a       	sbi	0x05, 4	; 5

#include "headers.h"


void driveHalt(){
	stepper_a_halt();
     cf8:	2e c0       	rjmp	.+92     	; 0xd56 <stepper_a_halt>
     cfa:	08 95       	ret

00000cfc <emergencyStopRelease>:
	//Enable auf LOW setzen
	STEPPER_A_ENABLE_PORT |= (1<<STEPPER_A_ENABLE_N);
	driveHalt();
}
void emergencyStopRelease(void){
	driveState = DRV_STATE_RDY;
     cfc:	10 92 35 02 	sts	0x0235, r1	; 0x800235 <driveState>
	//Enable auf HIGH setzen
	STEPPER_A_ENABLE_PORT &= ~(1<<STEPPER_A_ENABLE_N);
     d00:	2c 98       	cbi	0x05, 4	; 5
     d02:	08 95       	ret

00000d04 <stepper_a_home>:
	}
	
}

void stepper_a_home(){
	stepper_a_hasPreviouslyMoved = 1;
     d04:	81 e0       	ldi	r24, 0x01	; 1
     d06:	80 93 01 02 	sts	0x0201, r24	; 0x800201 <stepper_a_hasPreviouslyMoved>
	stepper_a_hasPreviouslyHomed = 1;
     d0a:	80 93 11 02 	sts	0x0211, r24	; 0x800211 <stepper_a_hasPreviouslyHomed>

	if (stepper_a_settings.polarity_reference_switch != ((STEPPER_A_REFERENCE_PIN & (1 << STEPPER_A_REFERENCE_N)) == (1 << STEPPER_A_REFERENCE_N)))
     d0e:	4c b1       	in	r20, 0x0c	; 12
     d10:	80 91 30 02 	lds	r24, 0x0230	; 0x800230 <stepper_a_settings+0x1b>
     d14:	90 e0       	ldi	r25, 0x00	; 0
     d16:	46 fb       	bst	r20, 6
     d18:	22 27       	eor	r18, r18
     d1a:	20 f9       	bld	r18, 0
     d1c:	30 e0       	ldi	r19, 0x00	; 0
     d1e:	82 17       	cp	r24, r18
     d20:	93 07       	cpc	r25, r19
     d22:	21 f0       	breq	.+8      	; 0xd2c <stepper_a_home+0x28>
	{
		//Status2: Antrieb befindet sich im Fangbereich des Endschalters
		stepper_a_referencing = 2;
     d24:	82 e0       	ldi	r24, 0x02	; 2
     d26:	80 93 02 02 	sts	0x0202, r24	; 0x800202 <stepper_a_referencing>
     d2a:	08 95       	ret
	}

	else{
		//Status 1: Antrieb befindet sich nicht im Fangbereich des Endschalters
		stepper_a_referencing = 1;
     d2c:	81 e0       	ldi	r24, 0x01	; 1
     d2e:	80 93 02 02 	sts	0x0202, r24	; 0x800202 <stepper_a_referencing>
     d32:	08 95       	ret

00000d34 <stepper_a_zero>:
	}
}
void stepper_a_zero(){
	stepper_a_setpoint = 0;
     d34:	10 92 fa 01 	sts	0x01FA, r1	; 0x8001fa <stepper_a_setpoint>
     d38:	10 92 fb 01 	sts	0x01FB, r1	; 0x8001fb <stepper_a_setpoint+0x1>
     d3c:	10 92 fc 01 	sts	0x01FC, r1	; 0x8001fc <stepper_a_setpoint+0x2>
     d40:	10 92 fd 01 	sts	0x01FD, r1	; 0x8001fd <stepper_a_setpoint+0x3>
	stepper_a_position = 0;
     d44:	10 92 31 02 	sts	0x0231, r1	; 0x800231 <stepper_a_position>
     d48:	10 92 32 02 	sts	0x0232, r1	; 0x800232 <stepper_a_position+0x1>
     d4c:	10 92 33 02 	sts	0x0233, r1	; 0x800233 <stepper_a_position+0x2>
     d50:	10 92 34 02 	sts	0x0234, r1	; 0x800234 <stepper_a_position+0x3>
     d54:	08 95       	ret

00000d56 <stepper_a_halt>:
}

void stepper_a_halt(){
	stepper_a_setpoint = stepper_a_position;
     d56:	80 91 31 02 	lds	r24, 0x0231	; 0x800231 <stepper_a_position>
     d5a:	90 91 32 02 	lds	r25, 0x0232	; 0x800232 <stepper_a_position+0x1>
     d5e:	a0 91 33 02 	lds	r26, 0x0233	; 0x800233 <stepper_a_position+0x2>
     d62:	b0 91 34 02 	lds	r27, 0x0234	; 0x800234 <stepper_a_position+0x3>
     d66:	80 93 fa 01 	sts	0x01FA, r24	; 0x8001fa <stepper_a_setpoint>
     d6a:	90 93 fb 01 	sts	0x01FB, r25	; 0x8001fb <stepper_a_setpoint+0x1>
     d6e:	a0 93 fc 01 	sts	0x01FC, r26	; 0x8001fc <stepper_a_setpoint+0x2>
     d72:	b0 93 fd 01 	sts	0x01FD, r27	; 0x8001fd <stepper_a_setpoint+0x3>
     d76:	08 95       	ret

00000d78 <stepper_a_setSetPoint>:
}

uint8_t stepper_a_setSetPoint(double value){
     d78:	cf 92       	push	r12
     d7a:	df 92       	push	r13
     d7c:	ef 92       	push	r14
     d7e:	ff 92       	push	r15
     d80:	6b 01       	movw	r12, r22
     d82:	7c 01       	movw	r14, r24
	//Prüfen ob Wert in erlaubtem Bereich falls Positionsbegrenzung aktiviert
	if(stepper_a_settings.position_limit_enabled && ((value > stepper_a_settings.position_max)||(value < stepper_a_settings.position_min)))
     d84:	80 91 22 02 	lds	r24, 0x0222	; 0x800222 <stepper_a_settings+0xd>
     d88:	88 23       	and	r24, r24
     d8a:	e1 f0       	breq	.+56     	; 0xdc4 <stepper_a_setSetPoint+0x4c>
     d8c:	a7 01       	movw	r20, r14
     d8e:	96 01       	movw	r18, r12
     d90:	60 91 23 02 	lds	r22, 0x0223	; 0x800223 <stepper_a_settings+0xe>
     d94:	70 91 24 02 	lds	r23, 0x0224	; 0x800224 <stepper_a_settings+0xf>
     d98:	80 91 25 02 	lds	r24, 0x0225	; 0x800225 <stepper_a_settings+0x10>
     d9c:	90 91 26 02 	lds	r25, 0x0226	; 0x800226 <stepper_a_settings+0x11>
     da0:	0e 94 b2 11 	call	0x2364	; 0x2364 <__cmpsf2>
     da4:	88 23       	and	r24, r24
     da6:	4c f1       	brlt	.+82     	; 0xdfa <stepper_a_setSetPoint+0x82>
     da8:	20 91 27 02 	lds	r18, 0x0227	; 0x800227 <stepper_a_settings+0x12>
     dac:	30 91 28 02 	lds	r19, 0x0228	; 0x800228 <stepper_a_settings+0x13>
     db0:	40 91 29 02 	lds	r20, 0x0229	; 0x800229 <stepper_a_settings+0x14>
     db4:	50 91 2a 02 	lds	r21, 0x022A	; 0x80022a <stepper_a_settings+0x15>
     db8:	c7 01       	movw	r24, r14
     dba:	b6 01       	movw	r22, r12
     dbc:	0e 94 b2 11 	call	0x2364	; 0x2364 <__cmpsf2>
     dc0:	88 23       	and	r24, r24
     dc2:	ec f0       	brlt	.+58     	; 0xdfe <stepper_a_setSetPoint+0x86>
	return 1;
	else
	{
		stepper_a_hasPreviouslyMoved = 1;
     dc4:	81 e0       	ldi	r24, 0x01	; 1
     dc6:	80 93 01 02 	sts	0x0201, r24	; 0x800201 <stepper_a_hasPreviouslyMoved>
		stepper_a_setpoint = value * stepper_a_settings.steps_per_unit;
     dca:	20 91 15 02 	lds	r18, 0x0215	; 0x800215 <stepper_a_settings>
     dce:	30 91 16 02 	lds	r19, 0x0216	; 0x800216 <stepper_a_settings+0x1>
     dd2:	40 91 17 02 	lds	r20, 0x0217	; 0x800217 <stepper_a_settings+0x2>
     dd6:	50 91 18 02 	lds	r21, 0x0218	; 0x800218 <stepper_a_settings+0x3>
     dda:	c7 01       	movw	r24, r14
     ddc:	b6 01       	movw	r22, r12
     dde:	0e 94 05 13 	call	0x260a	; 0x260a <__mulsf3>
     de2:	0e 94 1e 12 	call	0x243c	; 0x243c <__fixsfsi>
     de6:	60 93 fa 01 	sts	0x01FA, r22	; 0x8001fa <stepper_a_setpoint>
     dea:	70 93 fb 01 	sts	0x01FB, r23	; 0x8001fb <stepper_a_setpoint+0x1>
     dee:	80 93 fc 01 	sts	0x01FC, r24	; 0x8001fc <stepper_a_setpoint+0x2>
     df2:	90 93 fd 01 	sts	0x01FD, r25	; 0x8001fd <stepper_a_setpoint+0x3>
	}
	
	return 0;
     df6:	80 e0       	ldi	r24, 0x00	; 0
     df8:	03 c0       	rjmp	.+6      	; 0xe00 <stepper_a_setSetPoint+0x88>
}

uint8_t stepper_a_setSetPoint(double value){
	//Prüfen ob Wert in erlaubtem Bereich falls Positionsbegrenzung aktiviert
	if(stepper_a_settings.position_limit_enabled && ((value > stepper_a_settings.position_max)||(value < stepper_a_settings.position_min)))
	return 1;
     dfa:	81 e0       	ldi	r24, 0x01	; 1
     dfc:	01 c0       	rjmp	.+2      	; 0xe00 <stepper_a_setSetPoint+0x88>
     dfe:	81 e0       	ldi	r24, 0x01	; 1
		stepper_a_hasPreviouslyMoved = 1;
		stepper_a_setpoint = value * stepper_a_settings.steps_per_unit;
	}
	
	return 0;
}
     e00:	ff 90       	pop	r15
     e02:	ef 90       	pop	r14
     e04:	df 90       	pop	r13
     e06:	cf 90       	pop	r12
     e08:	08 95       	ret

00000e0a <stepper_a_getValue>:

double stepper_a_getValue(){
	return (double)stepper_a_position / stepper_a_settings.steps_per_unit;
     e0a:	60 91 31 02 	lds	r22, 0x0231	; 0x800231 <stepper_a_position>
     e0e:	70 91 32 02 	lds	r23, 0x0232	; 0x800232 <stepper_a_position+0x1>
     e12:	80 91 33 02 	lds	r24, 0x0233	; 0x800233 <stepper_a_position+0x2>
     e16:	90 91 34 02 	lds	r25, 0x0234	; 0x800234 <stepper_a_position+0x3>
     e1a:	0e 94 51 12 	call	0x24a2	; 0x24a2 <__floatsisf>
     e1e:	20 91 15 02 	lds	r18, 0x0215	; 0x800215 <stepper_a_settings>
     e22:	30 91 16 02 	lds	r19, 0x0216	; 0x800216 <stepper_a_settings+0x1>
     e26:	40 91 17 02 	lds	r20, 0x0217	; 0x800217 <stepper_a_settings+0x2>
     e2a:	50 91 18 02 	lds	r21, 0x0218	; 0x800218 <stepper_a_settings+0x3>
     e2e:	0c 94 b6 11 	jmp	0x236c	; 0x236c <__divsf3>
}
     e32:	08 95       	ret

00000e34 <stepper_a_setSpeed>:


uint8_t stepper_a_setSpeed(double value){
     e34:	8f 92       	push	r8
     e36:	9f 92       	push	r9
     e38:	af 92       	push	r10
     e3a:	bf 92       	push	r11
     e3c:	cf 92       	push	r12
     e3e:	df 92       	push	r13
     e40:	ef 92       	push	r14
     e42:	ff 92       	push	r15
     e44:	6b 01       	movw	r12, r22
     e46:	7c 01       	movw	r14, r24
	//Befehl nur akzeptieren wenn Wer
	if (value > 0 && ((value <= stepper_a_settings.speed_max)||stepper_a_settings.speed_max_enabled))
     e48:	20 e0       	ldi	r18, 0x00	; 0
     e4a:	30 e0       	ldi	r19, 0x00	; 0
     e4c:	a9 01       	movw	r20, r18
     e4e:	0e 94 01 13 	call	0x2602	; 0x2602 <__gesf2>
     e52:	18 16       	cp	r1, r24
     e54:	0c f0       	brlt	.+2      	; 0xe58 <stepper_a_setSpeed+0x24>
     e56:	ae c0       	rjmp	.+348    	; 0xfb4 <stepper_a_setSpeed+0x180>
     e58:	20 91 1e 02 	lds	r18, 0x021E	; 0x80021e <stepper_a_settings+0x9>
     e5c:	30 91 1f 02 	lds	r19, 0x021F	; 0x80021f <stepper_a_settings+0xa>
     e60:	40 91 20 02 	lds	r20, 0x0220	; 0x800220 <stepper_a_settings+0xb>
     e64:	50 91 21 02 	lds	r21, 0x0221	; 0x800221 <stepper_a_settings+0xc>
     e68:	c7 01       	movw	r24, r14
     e6a:	b6 01       	movw	r22, r12
     e6c:	0e 94 b2 11 	call	0x2364	; 0x2364 <__cmpsf2>
     e70:	18 16       	cp	r1, r24
     e72:	2c f4       	brge	.+10     	; 0xe7e <stepper_a_setSpeed+0x4a>
     e74:	80 91 1d 02 	lds	r24, 0x021D	; 0x80021d <stepper_a_settings+0x8>
     e78:	88 23       	and	r24, r24
     e7a:	09 f4       	brne	.+2      	; 0xe7e <stepper_a_setSpeed+0x4a>
     e7c:	9d c0       	rjmp	.+314    	; 0xfb8 <stepper_a_setSpeed+0x184>
	{

		if ((value * stepper_a_settings.steps_per_unit) > 245)
     e7e:	20 91 15 02 	lds	r18, 0x0215	; 0x800215 <stepper_a_settings>
     e82:	30 91 16 02 	lds	r19, 0x0216	; 0x800216 <stepper_a_settings+0x1>
     e86:	40 91 17 02 	lds	r20, 0x0217	; 0x800217 <stepper_a_settings+0x2>
     e8a:	50 91 18 02 	lds	r21, 0x0218	; 0x800218 <stepper_a_settings+0x3>
     e8e:	c7 01       	movw	r24, r14
     e90:	b6 01       	movw	r22, r12
     e92:	0e 94 05 13 	call	0x260a	; 0x260a <__mulsf3>
     e96:	4b 01       	movw	r8, r22
     e98:	5c 01       	movw	r10, r24
     e9a:	20 e0       	ldi	r18, 0x00	; 0
     e9c:	30 e0       	ldi	r19, 0x00	; 0
     e9e:	45 e7       	ldi	r20, 0x75	; 117
     ea0:	53 e4       	ldi	r21, 0x43	; 67
     ea2:	0e 94 01 13 	call	0x2602	; 0x2602 <__gesf2>
     ea6:	18 16       	cp	r1, r24
     ea8:	54 f4       	brge	.+20     	; 0xebe <stepper_a_setSpeed+0x8a>
		{
			//No Prescaler
			stepper_a_prescalerState = 1;
     eaa:	81 e0       	ldi	r24, 0x01	; 1
     eac:	80 93 12 02 	sts	0x0212, r24	; 0x800212 <stepper_a_prescalerState>
			stepper_a_prescalerFactor = 1;
     eb0:	81 e0       	ldi	r24, 0x01	; 1
     eb2:	90 e0       	ldi	r25, 0x00	; 0
     eb4:	90 93 3b 02 	sts	0x023B, r25	; 0x80023b <stepper_a_prescalerFactor+0x1>
     eb8:	80 93 3a 02 	sts	0x023A, r24	; 0x80023a <stepper_a_prescalerFactor>
     ebc:	45 c0       	rjmp	.+138    	; 0xf48 <stepper_a_setSpeed+0x114>
		}
		else if ((value * stepper_a_settings.steps_per_unit) > 31)
     ebe:	20 e0       	ldi	r18, 0x00	; 0
     ec0:	30 e0       	ldi	r19, 0x00	; 0
     ec2:	48 ef       	ldi	r20, 0xF8	; 248
     ec4:	51 e4       	ldi	r21, 0x41	; 65
     ec6:	c5 01       	movw	r24, r10
     ec8:	b4 01       	movw	r22, r8
     eca:	0e 94 01 13 	call	0x2602	; 0x2602 <__gesf2>
     ece:	18 16       	cp	r1, r24
     ed0:	54 f4       	brge	.+20     	; 0xee6 <stepper_a_setSpeed+0xb2>
		{
			//Prescaler=8
			stepper_a_prescalerState = 2;
     ed2:	82 e0       	ldi	r24, 0x02	; 2
     ed4:	80 93 12 02 	sts	0x0212, r24	; 0x800212 <stepper_a_prescalerState>
			stepper_a_prescalerFactor = 8;
     ed8:	88 e0       	ldi	r24, 0x08	; 8
     eda:	90 e0       	ldi	r25, 0x00	; 0
     edc:	90 93 3b 02 	sts	0x023B, r25	; 0x80023b <stepper_a_prescalerFactor+0x1>
     ee0:	80 93 3a 02 	sts	0x023A, r24	; 0x80023a <stepper_a_prescalerFactor>
     ee4:	31 c0       	rjmp	.+98     	; 0xf48 <stepper_a_setSpeed+0x114>
		}
		//Die Fälle ab hier sind eigentlich uninteressant, da sich das Teil eh nie so langsam bewegen wird, aber der Vollständigkeit halber nehm ichs mal auf
		else if ((value * stepper_a_settings.steps_per_unit) > 4)
     ee6:	20 e0       	ldi	r18, 0x00	; 0
     ee8:	30 e0       	ldi	r19, 0x00	; 0
     eea:	40 e8       	ldi	r20, 0x80	; 128
     eec:	50 e4       	ldi	r21, 0x40	; 64
     eee:	c5 01       	movw	r24, r10
     ef0:	b4 01       	movw	r22, r8
     ef2:	0e 94 01 13 	call	0x2602	; 0x2602 <__gesf2>
     ef6:	18 16       	cp	r1, r24
     ef8:	54 f4       	brge	.+20     	; 0xf0e <stepper_a_setSpeed+0xda>
		{
			//Prescaler=64
			stepper_a_prescalerState = 3;
     efa:	83 e0       	ldi	r24, 0x03	; 3
     efc:	80 93 12 02 	sts	0x0212, r24	; 0x800212 <stepper_a_prescalerState>
			stepper_a_prescalerFactor = 64;
     f00:	80 e4       	ldi	r24, 0x40	; 64
     f02:	90 e0       	ldi	r25, 0x00	; 0
     f04:	90 93 3b 02 	sts	0x023B, r25	; 0x80023b <stepper_a_prescalerFactor+0x1>
     f08:	80 93 3a 02 	sts	0x023A, r24	; 0x80023a <stepper_a_prescalerFactor>
     f0c:	1d c0       	rjmp	.+58     	; 0xf48 <stepper_a_setSpeed+0x114>
		}
		else if ((value * stepper_a_settings.steps_per_unit) > 1)
     f0e:	20 e0       	ldi	r18, 0x00	; 0
     f10:	30 e0       	ldi	r19, 0x00	; 0
     f12:	40 e8       	ldi	r20, 0x80	; 128
     f14:	5f e3       	ldi	r21, 0x3F	; 63
     f16:	c5 01       	movw	r24, r10
     f18:	b4 01       	movw	r22, r8
     f1a:	0e 94 01 13 	call	0x2602	; 0x2602 <__gesf2>
     f1e:	18 16       	cp	r1, r24
     f20:	54 f4       	brge	.+20     	; 0xf36 <stepper_a_setSpeed+0x102>
		{
			//Prescaler=256
			stepper_a_prescalerState = 4;
     f22:	84 e0       	ldi	r24, 0x04	; 4
     f24:	80 93 12 02 	sts	0x0212, r24	; 0x800212 <stepper_a_prescalerState>
			stepper_a_prescalerFactor = 256;
     f28:	80 e0       	ldi	r24, 0x00	; 0
     f2a:	91 e0       	ldi	r25, 0x01	; 1
     f2c:	90 93 3b 02 	sts	0x023B, r25	; 0x80023b <stepper_a_prescalerFactor+0x1>
     f30:	80 93 3a 02 	sts	0x023A, r24	; 0x80023a <stepper_a_prescalerFactor>
     f34:	09 c0       	rjmp	.+18     	; 0xf48 <stepper_a_setSpeed+0x114>
		}
		else
		{
			//Prescaler=1024
			stepper_a_prescalerState = 5;
     f36:	85 e0       	ldi	r24, 0x05	; 5
     f38:	80 93 12 02 	sts	0x0212, r24	; 0x800212 <stepper_a_prescalerState>
			stepper_a_prescalerFactor = 1024;
     f3c:	80 e0       	ldi	r24, 0x00	; 0
     f3e:	94 e0       	ldi	r25, 0x04	; 4
     f40:	90 93 3b 02 	sts	0x023B, r25	; 0x80023b <stepper_a_prescalerFactor+0x1>
     f44:	80 93 3a 02 	sts	0x023A, r24	; 0x80023a <stepper_a_prescalerFactor>
		}

		stepper_a_speed_factor = (double)F_CPU / ((double)stepper_a_settings.steps_per_unit * (double)stepper_a_prescalerFactor);
     f48:	60 91 3a 02 	lds	r22, 0x023A	; 0x80023a <stepper_a_prescalerFactor>
     f4c:	70 91 3b 02 	lds	r23, 0x023B	; 0x80023b <stepper_a_prescalerFactor+0x1>
     f50:	07 2e       	mov	r0, r23
     f52:	00 0c       	add	r0, r0
     f54:	88 0b       	sbc	r24, r24
     f56:	99 0b       	sbc	r25, r25
     f58:	0e 94 51 12 	call	0x24a2	; 0x24a2 <__floatsisf>
     f5c:	20 91 15 02 	lds	r18, 0x0215	; 0x800215 <stepper_a_settings>
     f60:	30 91 16 02 	lds	r19, 0x0216	; 0x800216 <stepper_a_settings+0x1>
     f64:	40 91 17 02 	lds	r20, 0x0217	; 0x800217 <stepper_a_settings+0x2>
     f68:	50 91 18 02 	lds	r21, 0x0218	; 0x800218 <stepper_a_settings+0x3>
     f6c:	0e 94 05 13 	call	0x260a	; 0x260a <__mulsf3>
     f70:	9b 01       	movw	r18, r22
     f72:	ac 01       	movw	r20, r24
     f74:	60 e0       	ldi	r22, 0x00	; 0
     f76:	74 e2       	ldi	r23, 0x24	; 36
     f78:	84 e7       	ldi	r24, 0x74	; 116
     f7a:	9b e4       	ldi	r25, 0x4B	; 75
     f7c:	0e 94 b6 11 	call	0x236c	; 0x236c <__divsf3>
     f80:	60 93 36 02 	sts	0x0236, r22	; 0x800236 <stepper_a_speed_factor>
     f84:	70 93 37 02 	sts	0x0237, r23	; 0x800237 <stepper_a_speed_factor+0x1>
     f88:	80 93 38 02 	sts	0x0238, r24	; 0x800238 <stepper_a_speed_factor+0x2>
     f8c:	90 93 39 02 	sts	0x0239, r25	; 0x800239 <stepper_a_speed_factor+0x3>
		//Subtracting the Length of one Output Pulse (~2.9us per Step) in TimerRegister Units: Used to compensate the Length of the Pulse, so the Speed is accurate
		
		//uint16_t ocr = (uint16_t)((stepper_a_speed_factor / value)-(PULSE_LEN * ((double)F_CPU / (double)stepper_a_prescalerFactor)));
		uint16_t ocr = (uint16_t)(stepper_a_speed_factor / value);
     f90:	a7 01       	movw	r20, r14
     f92:	96 01       	movw	r18, r12
     f94:	0e 94 b6 11 	call	0x236c	; 0x236c <__divsf3>
     f98:	0e 94 23 12 	call	0x2446	; 0x2446 <__fixunssfsi>

		//_SFR_MEM16(OCRA) = (uint16_t)ocr;
		//Disable Interrupts
		cli();
     f9c:	f8 94       	cli
		//_SFR_MEM8(OCRA+1) = (uint8_t)(ocr>>8);
		//_SFR_MEM8(OCRA) = (uint8_t)ocr;
		STEPPER_A_TIMER_TCNT = 0;
     f9e:	10 92 85 00 	sts	0x0085, r1	; 0x800085 <__TEXT_REGION_LENGTH__+0x7f8085>
     fa2:	10 92 84 00 	sts	0x0084, r1	; 0x800084 <__TEXT_REGION_LENGTH__+0x7f8084>
		STEPPER_A_TIMER_OCRA = ocr;
     fa6:	70 93 89 00 	sts	0x0089, r23	; 0x800089 <__TEXT_REGION_LENGTH__+0x7f8089>
     faa:	60 93 88 00 	sts	0x0088, r22	; 0x800088 <__TEXT_REGION_LENGTH__+0x7f8088>
		//Enable Interrupts
		sei();
     fae:	78 94       	sei

		return 0;
     fb0:	80 e0       	ldi	r24, 0x00	; 0
     fb2:	03 c0       	rjmp	.+6      	; 0xfba <stepper_a_setSpeed+0x186>
	}
	else
	{
		return 1;
     fb4:	81 e0       	ldi	r24, 0x01	; 1
     fb6:	01 c0       	rjmp	.+2      	; 0xfba <stepper_a_setSpeed+0x186>
     fb8:	81 e0       	ldi	r24, 0x01	; 1
	}
	
}
     fba:	ff 90       	pop	r15
     fbc:	ef 90       	pop	r14
     fbe:	df 90       	pop	r13
     fc0:	cf 90       	pop	r12
     fc2:	bf 90       	pop	r11
     fc4:	af 90       	pop	r10
     fc6:	9f 90       	pop	r9
     fc8:	8f 90       	pop	r8
     fca:	08 95       	ret

00000fcc <stepper_a_init>:


void stepper_a_init(){
	
	
	eeprom_read_block(&stepper_a_settings, (void*)STEPPER_A_SETTINGS_START_ADDR, sizeof(stepper_a_settings));
     fcc:	4c e1       	ldi	r20, 0x1C	; 28
     fce:	50 e0       	ldi	r21, 0x00	; 0
     fd0:	60 e1       	ldi	r22, 0x10	; 16
     fd2:	70 e0       	ldi	r23, 0x00	; 0
     fd4:	85 e1       	ldi	r24, 0x15	; 21
     fd6:	92 e0       	ldi	r25, 0x02	; 2
     fd8:	0e 94 cb 17 	call	0x2f96	; 0x2f96 <eeprom_read_block>
	stepper_a_moving = 0;
     fdc:	10 92 00 02 	sts	0x0200, r1	; 0x800200 <stepper_a_moving>
	stepper_a_direction = 0;
     fe0:	10 92 3c 02 	sts	0x023C, r1	; 0x80023c <stepper_a_direction>
	stepper_a_hasPreviouslyMoved = 0;
     fe4:	10 92 01 02 	sts	0x0201, r1	; 0x800201 <stepper_a_hasPreviouslyMoved>
	stepper_a_hasPreviouslyHomed = 0;
     fe8:	10 92 11 02 	sts	0x0211, r1	; 0x800211 <stepper_a_hasPreviouslyHomed>
	stepper_a_referencing = 0;
     fec:	10 92 02 02 	sts	0x0202, r1	; 0x800202 <stepper_a_referencing>
	stepper_a_prescalerState = 0;
     ff0:	10 92 12 02 	sts	0x0212, r1	; 0x800212 <stepper_a_prescalerState>

	stepper_a_setpoint = 0;
     ff4:	10 92 fa 01 	sts	0x01FA, r1	; 0x8001fa <stepper_a_setpoint>
     ff8:	10 92 fb 01 	sts	0x01FB, r1	; 0x8001fb <stepper_a_setpoint+0x1>
     ffc:	10 92 fc 01 	sts	0x01FC, r1	; 0x8001fc <stepper_a_setpoint+0x2>
    1000:	10 92 fd 01 	sts	0x01FD, r1	; 0x8001fd <stepper_a_setpoint+0x3>
	stepper_a_position = 0;
    1004:	10 92 31 02 	sts	0x0231, r1	; 0x800231 <stepper_a_position>
    1008:	10 92 32 02 	sts	0x0232, r1	; 0x800232 <stepper_a_position+0x1>
    100c:	10 92 33 02 	sts	0x0233, r1	; 0x800233 <stepper_a_position+0x2>
    1010:	10 92 34 02 	sts	0x0234, r1	; 0x800234 <stepper_a_position+0x3>

	
	
	//Ausgänge definieren
	STEPPER_A_STEP_DDR |= (1 << STEPPER_A_STEP_N);
    1014:	26 9a       	sbi	0x04, 6	; 4
	STEPPER_A_DIRECTION__DDR |= (1 << STEPPER_A_DIRECTION_N);
    1016:	25 9a       	sbi	0x04, 5	; 4
	STEPPER_A_ENABLE_DDR |= (1 << STEPPER_A_ENABLE_N);
    1018:	24 9a       	sbi	0x04, 4	; 4
	//Eingang definieren
	STEPPER_A_REFERENCE_DDR &= ~(1 << STEPPER_A_REFERENCE_N);
    101a:	6e 98       	cbi	0x0d, 6	; 13
	
	//Enable auf HIGH setzen
	STEPPER_A_ENABLE_PORT &= ~(1<<STEPPER_A_ENABLE_N);
    101c:	2c 98       	cbi	0x05, 4	; 5
	
	//Register fuer Timer setzen
	//Interrupts deaktivieren
	cli();
    101e:	f8 94       	cli
	// Register mit 0 initialisieren

	STEPPER_A_TIMER_TCCRA = 0b00000000; //Register für PWM
    1020:	10 92 80 00 	sts	0x0080, r1	; 0x800080 <__TEXT_REGION_LENGTH__+0x7f8080>
	STEPPER_A_TIMER_TCCRB = 0b00011000;//Register für Prescaler: //WGM12 setzen, WGM13 setzen. Aus Irgend einem Grund Behebt das Setzen von WGM13 das Problem, dass nur das Low Byte vom OCRA Register beschrieben wird
    1024:	88 e1       	ldi	r24, 0x18	; 24
    1026:	80 93 81 00 	sts	0x0081, r24	; 0x800081 <__TEXT_REGION_LENGTH__+0x7f8081>
	STEPPER_A_TIMER_TCNT = 0b00000000; //Counter Register
    102a:	10 92 85 00 	sts	0x0085, r1	; 0x800085 <__TEXT_REGION_LENGTH__+0x7f8085>
    102e:	10 92 84 00 	sts	0x0084, r1	; 0x800084 <__TEXT_REGION_LENGTH__+0x7f8084>
	STEPPER_A_TIMER_TIMSK = 0b00000010;
    1032:	82 e0       	ldi	r24, 0x02	; 2
    1034:	80 93 6f 00 	sts	0x006F, r24	; 0x80006f <__TEXT_REGION_LENGTH__+0x7f806f>

	sei();
    1038:	78 94       	sei
	stepper_a_setSpeed(stepper_a_settings.speed_default);
    103a:	60 91 19 02 	lds	r22, 0x0219	; 0x800219 <stepper_a_settings+0x4>
    103e:	70 91 1a 02 	lds	r23, 0x021A	; 0x80021a <stepper_a_settings+0x5>
    1042:	80 91 1b 02 	lds	r24, 0x021B	; 0x80021b <stepper_a_settings+0x6>
    1046:	90 91 1c 02 	lds	r25, 0x021C	; 0x80021c <stepper_a_settings+0x7>
    104a:	f4 ce       	rjmp	.-536    	; 0xe34 <stepper_a_setSpeed>
    104c:	08 95       	ret

0000104e <stepper_a_getSpeed>:
		return 1;
	}
	
}
double stepper_a_getSpeed(){
	return (stepper_a_speed_factor / (double)STEPPER_A_TIMER_OCRA);
    104e:	60 91 88 00 	lds	r22, 0x0088	; 0x800088 <__TEXT_REGION_LENGTH__+0x7f8088>
    1052:	70 91 89 00 	lds	r23, 0x0089	; 0x800089 <__TEXT_REGION_LENGTH__+0x7f8089>
    1056:	80 e0       	ldi	r24, 0x00	; 0
    1058:	90 e0       	ldi	r25, 0x00	; 0
    105a:	0e 94 4f 12 	call	0x249e	; 0x249e <__floatunsisf>
    105e:	9b 01       	movw	r18, r22
    1060:	ac 01       	movw	r20, r24
    1062:	60 91 36 02 	lds	r22, 0x0236	; 0x800236 <stepper_a_speed_factor>
    1066:	70 91 37 02 	lds	r23, 0x0237	; 0x800237 <stepper_a_speed_factor+0x1>
    106a:	80 91 38 02 	lds	r24, 0x0238	; 0x800238 <stepper_a_speed_factor+0x2>
    106e:	90 91 39 02 	lds	r25, 0x0239	; 0x800239 <stepper_a_speed_factor+0x3>
    1072:	0c 94 b6 11 	jmp	0x236c	; 0x236c <__divsf3>

	//return (stepper_a_speed_factor / (double)STEPPER_A_TIMER_OCRA) - ( (double)stepper_a_prescalerFactor / (PULSE_LEN*(double)F_CPU));
}
    1076:	08 95       	ret

00001078 <stepper_a_setPrescaler>:


void stepper_a_setPrescaler(int8_t state){
	
	//Disable Interrupts
	cli();
    1078:	f8 94       	cli
	switch(state){
    107a:	83 30       	cpi	r24, 0x03	; 3
    107c:	19 f1       	breq	.+70     	; 0x10c4 <stepper_a_setPrescaler+0x4c>
    107e:	2c f4       	brge	.+10     	; 0x108a <stepper_a_setPrescaler+0x12>
    1080:	81 30       	cpi	r24, 0x01	; 1
    1082:	41 f0       	breq	.+16     	; 0x1094 <stepper_a_setPrescaler+0x1c>
    1084:	82 30       	cpi	r24, 0x02	; 2
    1086:	91 f0       	breq	.+36     	; 0x10ac <stepper_a_setPrescaler+0x34>
    1088:	41 c0       	rjmp	.+130    	; 0x110c <stepper_a_setPrescaler+0x94>
    108a:	84 30       	cpi	r24, 0x04	; 4
    108c:	39 f1       	breq	.+78     	; 0x10dc <stepper_a_setPrescaler+0x64>
    108e:	85 30       	cpi	r24, 0x05	; 5
    1090:	89 f1       	breq	.+98     	; 0x10f4 <stepper_a_setPrescaler+0x7c>
    1092:	3c c0       	rjmp	.+120    	; 0x110c <stepper_a_setPrescaler+0x94>
		case 1:
		//No Prescaler
		//CS10
		STEPPER_A_TIMER_TCCRB |= (1 << 0);//1
    1094:	e1 e8       	ldi	r30, 0x81	; 129
    1096:	f0 e0       	ldi	r31, 0x00	; 0
    1098:	80 81       	ld	r24, Z
    109a:	81 60       	ori	r24, 0x01	; 1
    109c:	80 83       	st	Z, r24
		//CS11
		STEPPER_A_TIMER_TCCRB &=~(1 << 1);//0
    109e:	80 81       	ld	r24, Z
    10a0:	8d 7f       	andi	r24, 0xFD	; 253
    10a2:	80 83       	st	Z, r24
		//CS12
		STEPPER_A_TIMER_TCCRB &=~(1 << 2);//0
    10a4:	80 81       	ld	r24, Z
    10a6:	8b 7f       	andi	r24, 0xFB	; 251
    10a8:	80 83       	st	Z, r24
		break;
    10aa:	3b c0       	rjmp	.+118    	; 0x1122 <stepper_a_setPrescaler+0xaa>
		case 2:
		//Prescaler=8
		//CS10
		STEPPER_A_TIMER_TCCRB &=~(1 << 0);
    10ac:	e1 e8       	ldi	r30, 0x81	; 129
    10ae:	f0 e0       	ldi	r31, 0x00	; 0
    10b0:	80 81       	ld	r24, Z
    10b2:	8e 7f       	andi	r24, 0xFE	; 254
    10b4:	80 83       	st	Z, r24
		//CS11
		STEPPER_A_TIMER_TCCRB |= (1 << 1);
    10b6:	80 81       	ld	r24, Z
    10b8:	82 60       	ori	r24, 0x02	; 2
    10ba:	80 83       	st	Z, r24
		//CS12
		STEPPER_A_TIMER_TCCRB &=~(1 << 2);
    10bc:	80 81       	ld	r24, Z
    10be:	8b 7f       	andi	r24, 0xFB	; 251
    10c0:	80 83       	st	Z, r24
		break;
    10c2:	2f c0       	rjmp	.+94     	; 0x1122 <stepper_a_setPrescaler+0xaa>
		case 3:
		//Prescaler=64
		//CS10
		STEPPER_A_TIMER_TCCRB |= (1 << 0);
    10c4:	e1 e8       	ldi	r30, 0x81	; 129
    10c6:	f0 e0       	ldi	r31, 0x00	; 0
    10c8:	80 81       	ld	r24, Z
    10ca:	81 60       	ori	r24, 0x01	; 1
    10cc:	80 83       	st	Z, r24
		//CS11
		STEPPER_A_TIMER_TCCRB |= (1 << 1);
    10ce:	80 81       	ld	r24, Z
    10d0:	82 60       	ori	r24, 0x02	; 2
    10d2:	80 83       	st	Z, r24
		//CS12
		STEPPER_A_TIMER_TCCRB &=~(1 << 2);
    10d4:	80 81       	ld	r24, Z
    10d6:	8b 7f       	andi	r24, 0xFB	; 251
    10d8:	80 83       	st	Z, r24
		break;
    10da:	23 c0       	rjmp	.+70     	; 0x1122 <stepper_a_setPrescaler+0xaa>
		case 4:
		//Prescaler=256
		//CS10
		STEPPER_A_TIMER_TCCRB &=~(1 << 0);
    10dc:	e1 e8       	ldi	r30, 0x81	; 129
    10de:	f0 e0       	ldi	r31, 0x00	; 0
    10e0:	80 81       	ld	r24, Z
    10e2:	8e 7f       	andi	r24, 0xFE	; 254
    10e4:	80 83       	st	Z, r24
		//CS11
		STEPPER_A_TIMER_TCCRB &=~(1 << 1);
    10e6:	80 81       	ld	r24, Z
    10e8:	8d 7f       	andi	r24, 0xFD	; 253
    10ea:	80 83       	st	Z, r24
		//CS12
		STEPPER_A_TIMER_TCCRB |= (1 << 2);
    10ec:	80 81       	ld	r24, Z
    10ee:	84 60       	ori	r24, 0x04	; 4
    10f0:	80 83       	st	Z, r24
		break;
    10f2:	17 c0       	rjmp	.+46     	; 0x1122 <stepper_a_setPrescaler+0xaa>
		case 5:
		//Prescaler=1024
		//CS10
		STEPPER_A_TIMER_TCCRB |= (1 << 0);
    10f4:	e1 e8       	ldi	r30, 0x81	; 129
    10f6:	f0 e0       	ldi	r31, 0x00	; 0
    10f8:	80 81       	ld	r24, Z
    10fa:	81 60       	ori	r24, 0x01	; 1
    10fc:	80 83       	st	Z, r24
		//CS11
		STEPPER_A_TIMER_TCCRB &=~(1 << 1);
    10fe:	80 81       	ld	r24, Z
    1100:	8d 7f       	andi	r24, 0xFD	; 253
    1102:	80 83       	st	Z, r24
		//CS12
		STEPPER_A_TIMER_TCCRB |= (1 << 2);
    1104:	80 81       	ld	r24, Z
    1106:	84 60       	ori	r24, 0x04	; 4
    1108:	80 83       	st	Z, r24
		break;
    110a:	0b c0       	rjmp	.+22     	; 0x1122 <stepper_a_setPrescaler+0xaa>
		default:
		//Disable Timer, dont dave prescaler State
		//CS10
		STEPPER_A_TIMER_TCCRB &=~(1 << 0);//0
    110c:	e1 e8       	ldi	r30, 0x81	; 129
    110e:	f0 e0       	ldi	r31, 0x00	; 0
    1110:	80 81       	ld	r24, Z
    1112:	8e 7f       	andi	r24, 0xFE	; 254
    1114:	80 83       	st	Z, r24
		//CS11
		STEPPER_A_TIMER_TCCRB &=~(1 << 1);//0
    1116:	80 81       	ld	r24, Z
    1118:	8d 7f       	andi	r24, 0xFD	; 253
    111a:	80 83       	st	Z, r24
		//CS12
		STEPPER_A_TIMER_TCCRB &=~(1 << 2);//0
    111c:	80 81       	ld	r24, Z
    111e:	8b 7f       	andi	r24, 0xFB	; 251
    1120:	80 83       	st	Z, r24
		break;
	}
	//Enable Interrupts
	sei();
    1122:	78 94       	sei
    1124:	08 95       	ret

00001126 <stepper_a_setMotionState>:

	//return (stepper_a_speed_factor / (double)STEPPER_A_TIMER_OCRA) - ( (double)stepper_a_prescalerFactor / (PULSE_LEN*(double)F_CPU));
}

void stepper_a_setMotionState(int8_t state){
	if(state < 0 && !stepper_a_moving){
    1126:	88 23       	and	r24, r24
    1128:	a4 f4       	brge	.+40     	; 0x1152 <stepper_a_setMotionState+0x2c>
    112a:	90 91 00 02 	lds	r25, 0x0200	; 0x800200 <stepper_a_moving>
    112e:	91 11       	cpse	r25, r1
    1130:	35 c0       	rjmp	.+106    	; 0x119c <stepper_a_setMotionState+0x76>
		stepper_a_direction = 0;
    1132:	10 92 3c 02 	sts	0x023C, r1	; 0x80023c <stepper_a_direction>
		
		if(stepper_a_settings.invert_direction)
    1136:	80 91 2f 02 	lds	r24, 0x022F	; 0x80022f <stepper_a_settings+0x1a>
    113a:	88 23       	and	r24, r24
    113c:	11 f0       	breq	.+4      	; 0x1142 <stepper_a_setMotionState+0x1c>
		STEPPER_A_DIRECTION__PORT |= (1<<STEPPER_A_DIRECTION_N);    //Direction Pin High
    113e:	2d 9a       	sbi	0x05, 5	; 5
    1140:	01 c0       	rjmp	.+2      	; 0x1144 <stepper_a_setMotionState+0x1e>
		else
		STEPPER_A_DIRECTION__PORT &= ~(1<<STEPPER_A_DIRECTION_N);    //Direction Pin Low
    1142:	2d 98       	cbi	0x05, 5	; 5
		
		stepper_a_setPrescaler(stepper_a_prescalerState);
    1144:	80 91 12 02 	lds	r24, 0x0212	; 0x800212 <stepper_a_prescalerState>
    1148:	97 df       	rcall	.-210    	; 0x1078 <stepper_a_setPrescaler>
		stepper_a_moving = 1;
    114a:	81 e0       	ldi	r24, 0x01	; 1
    114c:	80 93 00 02 	sts	0x0200, r24	; 0x800200 <stepper_a_moving>
    1150:	08 95       	ret

		
	}
	else if(state > 0 && !stepper_a_moving){
    1152:	18 16       	cp	r1, r24
    1154:	ac f4       	brge	.+42     	; 0x1180 <stepper_a_setMotionState+0x5a>
    1156:	90 91 00 02 	lds	r25, 0x0200	; 0x800200 <stepper_a_moving>
    115a:	91 11       	cpse	r25, r1
    115c:	1c c0       	rjmp	.+56     	; 0x1196 <stepper_a_setMotionState+0x70>
		stepper_a_direction = 1;
    115e:	81 e0       	ldi	r24, 0x01	; 1
    1160:	80 93 3c 02 	sts	0x023C, r24	; 0x80023c <stepper_a_direction>
		if(stepper_a_settings.invert_direction)
    1164:	80 91 2f 02 	lds	r24, 0x022F	; 0x80022f <stepper_a_settings+0x1a>
    1168:	88 23       	and	r24, r24
    116a:	11 f0       	breq	.+4      	; 0x1170 <stepper_a_setMotionState+0x4a>
		STEPPER_A_DIRECTION__PORT &= ~(1<<STEPPER_A_DIRECTION_N);    //Direction Pin Low
    116c:	2d 98       	cbi	0x05, 5	; 5
    116e:	01 c0       	rjmp	.+2      	; 0x1172 <stepper_a_setMotionState+0x4c>
		else
		STEPPER_A_DIRECTION__PORT |= (1<<STEPPER_A_DIRECTION_N);    //Direction Pin High
    1170:	2d 9a       	sbi	0x05, 5	; 5
		stepper_a_setPrescaler(stepper_a_prescalerState);
    1172:	80 91 12 02 	lds	r24, 0x0212	; 0x800212 <stepper_a_prescalerState>
    1176:	80 df       	rcall	.-256    	; 0x1078 <stepper_a_setPrescaler>
		stepper_a_moving = 1;
    1178:	81 e0       	ldi	r24, 0x01	; 1
    117a:	80 93 00 02 	sts	0x0200, r24	; 0x800200 <stepper_a_moving>
    117e:	08 95       	ret

	}
	else if(state == 0 && stepper_a_moving){
    1180:	81 11       	cpse	r24, r1
    1182:	0f c0       	rjmp	.+30     	; 0x11a2 <stepper_a_setMotionState+0x7c>
    1184:	80 91 00 02 	lds	r24, 0x0200	; 0x800200 <stepper_a_moving>
    1188:	88 23       	and	r24, r24
		stepper_a_setPrescaler(0);
    118a:	59 f0       	breq	.+22     	; 0x11a2 <stepper_a_setMotionState+0x7c>
    118c:	80 e0       	ldi	r24, 0x00	; 0
    118e:	74 df       	rcall	.-280    	; 0x1078 <stepper_a_setPrescaler>
		stepper_a_moving = 0;
    1190:	10 92 00 02 	sts	0x0200, r1	; 0x800200 <stepper_a_moving>
	}
}
    1194:	08 95       	ret
		STEPPER_A_DIRECTION__PORT |= (1<<STEPPER_A_DIRECTION_N);    //Direction Pin High
		stepper_a_setPrescaler(stepper_a_prescalerState);
		stepper_a_moving = 1;

	}
	else if(state == 0 && stepper_a_moving){
    1196:	81 11       	cpse	r24, r1
    1198:	04 c0       	rjmp	.+8      	; 0x11a2 <stepper_a_setMotionState+0x7c>
    119a:	f8 cf       	rjmp	.-16     	; 0x118c <stepper_a_setMotionState+0x66>
		stepper_a_setPrescaler(stepper_a_prescalerState);
		stepper_a_moving = 1;

		
	}
	else if(state > 0 && !stepper_a_moving){
    119c:	18 16       	cp	r1, r24
    119e:	dc f3       	brlt	.-10     	; 0x1196 <stepper_a_setMotionState+0x70>
    11a0:	ef cf       	rjmp	.-34     	; 0x1180 <stepper_a_setMotionState+0x5a>
    11a2:	08 95       	ret

000011a4 <stepper_a_loop>:

	sei();
	stepper_a_setSpeed(stepper_a_settings.speed_default);
}

void stepper_a_loop(USB_ClassInfo_CDC_Device_t* pInterface){
    11a4:	0f 93       	push	r16
    11a6:	1f 93       	push	r17
    11a8:	cf 93       	push	r28
    11aa:	8c 01       	movw	r16, r24
	
	//In welchem Zustand befindet sich der Referenzierungsvorgang?
	switch (stepper_a_referencing)
    11ac:	c0 91 02 02 	lds	r28, 0x0202	; 0x800202 <stepper_a_referencing>
    11b0:	c1 30       	cpi	r28, 0x01	; 1
    11b2:	21 f0       	breq	.+8      	; 0x11bc <stepper_a_loop+0x18>
    11b4:	c2 30       	cpi	r28, 0x02	; 2
    11b6:	09 f4       	brne	.+2      	; 0x11ba <stepper_a_loop+0x16>
    11b8:	3c c0       	rjmp	.+120    	; 0x1232 <stepper_a_loop+0x8e>
    11ba:	4d c0       	rjmp	.+154    	; 0x1256 <stepper_a_loop+0xb2>
	{
		case 1:
		//Antrieb bei aufgerufener Referenzierung ausserhalb des Fangbereiches des Endschalters
		if (stepper_a_settings.polarity_reference_switch != ((STEPPER_A_REFERENCE_PIN & (1 << STEPPER_A_REFERENCE_N)) == (1 << STEPPER_A_REFERENCE_N)))
    11bc:	2c b1       	in	r18, 0x0c	; 12
    11be:	80 91 30 02 	lds	r24, 0x0230	; 0x800230 <stepper_a_settings+0x1b>
    11c2:	90 e0       	ldi	r25, 0x00	; 0
    11c4:	26 fb       	bst	r18, 6
    11c6:	44 27       	eor	r20, r20
    11c8:	40 f9       	bld	r20, 0
    11ca:	50 e0       	ldi	r21, 0x00	; 0
    11cc:	84 17       	cp	r24, r20
    11ce:	95 07       	cpc	r25, r21
    11d0:	69 f1       	breq	.+90     	; 0x122c <stepper_a_loop+0x88>
		{
			stepper_a_setMotionState(0);
    11d2:	80 e0       	ldi	r24, 0x00	; 0
    11d4:	a8 df       	rcall	.-176    	; 0x1126 <stepper_a_setMotionState>
			stepper_a_referencing = 0;
    11d6:	10 92 02 02 	sts	0x0202, r1	; 0x800202 <stepper_a_referencing>

			stepper_a_position = stepper_a_settings.reference_offset * stepper_a_settings.steps_per_unit;
    11da:	e5 e1       	ldi	r30, 0x15	; 21
    11dc:	f2 e0       	ldi	r31, 0x02	; 2
    11de:	20 81       	ld	r18, Z
    11e0:	31 81       	ldd	r19, Z+1	; 0x01
    11e2:	42 81       	ldd	r20, Z+2	; 0x02
    11e4:	53 81       	ldd	r21, Z+3	; 0x03
    11e6:	66 89       	ldd	r22, Z+22	; 0x16
    11e8:	77 89       	ldd	r23, Z+23	; 0x17
    11ea:	80 8d       	ldd	r24, Z+24	; 0x18
    11ec:	91 8d       	ldd	r25, Z+25	; 0x19
    11ee:	0e 94 05 13 	call	0x260a	; 0x260a <__mulsf3>
    11f2:	0e 94 1e 12 	call	0x243c	; 0x243c <__fixsfsi>
    11f6:	60 93 31 02 	sts	0x0231, r22	; 0x800231 <stepper_a_position>
    11fa:	70 93 32 02 	sts	0x0232, r23	; 0x800232 <stepper_a_position+0x1>
    11fe:	80 93 33 02 	sts	0x0233, r24	; 0x800233 <stepper_a_position+0x2>
    1202:	90 93 34 02 	sts	0x0234, r25	; 0x800234 <stepper_a_position+0x3>
			stepper_a_setpoint = 0;
    1206:	10 92 fa 01 	sts	0x01FA, r1	; 0x8001fa <stepper_a_setpoint>
    120a:	10 92 fb 01 	sts	0x01FB, r1	; 0x8001fb <stepper_a_setpoint+0x1>
    120e:	10 92 fc 01 	sts	0x01FC, r1	; 0x8001fc <stepper_a_setpoint+0x2>
    1212:	10 92 fd 01 	sts	0x01FD, r1	; 0x8001fd <stepper_a_setpoint+0x3>
			
			//Wenn Offset vorhanden: Vorgang noch nicht abgeschlossen!
			if(stepper_a_position != stepper_a_setpoint)
    1216:	61 15       	cp	r22, r1
    1218:	71 05       	cpc	r23, r1
    121a:	81 05       	cpc	r24, r1
    121c:	91 05       	cpc	r25, r1
    121e:	09 f4       	brne	.+2      	; 0x1222 <stepper_a_loop+0x7e>
    1220:	3b c0       	rjmp	.+118    	; 0x1298 <stepper_a_loop+0xf4>
			stepper_a_setMotionState((stepper_a_position < stepper_a_setpoint)? 1: -1);
    1222:	0c f0       	brlt	.+2      	; 0x1226 <stepper_a_loop+0x82>
    1224:	cf ef       	ldi	r28, 0xFF	; 255
    1226:	8c 2f       	mov	r24, r28
    1228:	7e df       	rcall	.-260    	; 0x1126 <stepper_a_setMotionState>
    122a:	36 c0       	rjmp	.+108    	; 0x1298 <stepper_a_loop+0xf4>
		}
		else
		{
			stepper_a_setMotionState(-1);
    122c:	8f ef       	ldi	r24, 0xFF	; 255
    122e:	7b df       	rcall	.-266    	; 0x1126 <stepper_a_setMotionState>
    1230:	33 c0       	rjmp	.+102    	; 0x1298 <stepper_a_loop+0xf4>
    1232:	4c b1       	in	r20, 0x0c	; 12
		break;

		case 2:
		//Befand sich der antrieb bei aufgerufener Referenzierung im Fangbereich des Endschalters?
		//Ist der Endschalter noch aktiv?
		if (stepper_a_settings.polarity_reference_switch != ((STEPPER_A_REFERENCE_PIN & (1 << STEPPER_A_REFERENCE_N)) == (1 << STEPPER_A_REFERENCE_N)))
    1234:	80 91 30 02 	lds	r24, 0x0230	; 0x800230 <stepper_a_settings+0x1b>
    1238:	90 e0       	ldi	r25, 0x00	; 0
    123a:	46 fb       	bst	r20, 6
    123c:	22 27       	eor	r18, r18
    123e:	20 f9       	bld	r18, 0
    1240:	30 e0       	ldi	r19, 0x00	; 0
    1242:	82 17       	cp	r24, r18
    1244:	93 07       	cpc	r25, r19
    1246:	19 f0       	breq	.+6      	; 0x124e <stepper_a_loop+0xaa>
		{
			stepper_a_setMotionState(1);
    1248:	81 e0       	ldi	r24, 0x01	; 1
    124a:	6d df       	rcall	.-294    	; 0x1126 <stepper_a_setMotionState>
    124c:	25 c0       	rjmp	.+74     	; 0x1298 <stepper_a_loop+0xf4>
    124e:	81 e0       	ldi	r24, 0x01	; 1
		}
		else
		{
			//stepper_a_setMotionState(0);
			stepper_a_referencing = 1;
    1250:	80 93 02 02 	sts	0x0202, r24	; 0x800202 <stepper_a_referencing>
    1254:	21 c0       	rjmp	.+66     	; 0x1298 <stepper_a_loop+0xf4>
    1256:	40 91 31 02 	lds	r20, 0x0231	; 0x800231 <stepper_a_position>
		}
		break;

		default:
		//Überprüfe ob Istwert = Sollwert
		if(stepper_a_position != stepper_a_setpoint){
    125a:	50 91 32 02 	lds	r21, 0x0232	; 0x800232 <stepper_a_position+0x1>
    125e:	60 91 33 02 	lds	r22, 0x0233	; 0x800233 <stepper_a_position+0x2>
    1262:	70 91 34 02 	lds	r23, 0x0234	; 0x800234 <stepper_a_position+0x3>
    1266:	80 91 fa 01 	lds	r24, 0x01FA	; 0x8001fa <stepper_a_setpoint>
    126a:	90 91 fb 01 	lds	r25, 0x01FB	; 0x8001fb <stepper_a_setpoint+0x1>
    126e:	a0 91 fc 01 	lds	r26, 0x01FC	; 0x8001fc <stepper_a_setpoint+0x2>
    1272:	b0 91 fd 01 	lds	r27, 0x01FD	; 0x8001fd <stepper_a_setpoint+0x3>
    1276:	48 17       	cp	r20, r24
    1278:	59 07       	cpc	r21, r25
    127a:	6a 07       	cpc	r22, r26
    127c:	7b 07       	cpc	r23, r27
    127e:	51 f0       	breq	.+20     	; 0x1294 <stepper_a_loop+0xf0>
    1280:	48 17       	cp	r20, r24
			stepper_a_setMotionState((stepper_a_position < stepper_a_setpoint)? 1: -1);
    1282:	59 07       	cpc	r21, r25
    1284:	6a 07       	cpc	r22, r26
    1286:	7b 07       	cpc	r23, r27
    1288:	14 f0       	brlt	.+4      	; 0x128e <stepper_a_loop+0xea>
    128a:	8f ef       	ldi	r24, 0xFF	; 255
    128c:	01 c0       	rjmp	.+2      	; 0x1290 <stepper_a_loop+0xec>
    128e:	81 e0       	ldi	r24, 0x01	; 1
    1290:	4a df       	rcall	.-364    	; 0x1126 <stepper_a_setMotionState>
    1292:	02 c0       	rjmp	.+4      	; 0x1298 <stepper_a_loop+0xf4>
    1294:	80 e0       	ldi	r24, 0x00	; 0
			//stepper_a_moving = 1;
			//CDC_Device_SendString(pInterface, (char)stepper_a_moving);

		}
		else{
			stepper_a_setMotionState(0);
    1296:	47 df       	rcall	.-370    	; 0x1126 <stepper_a_setMotionState>
    1298:	80 91 00 02 	lds	r24, 0x0200	; 0x800200 <stepper_a_moving>
		}
		break;
	}

	if ((stepper_a_moving == 0) && (stepper_a_hasPreviouslyMoved == 1))
    129c:	81 11       	cpse	r24, r1
    129e:	15 c0       	rjmp	.+42     	; 0x12ca <stepper_a_loop+0x126>
    12a0:	80 91 01 02 	lds	r24, 0x0201	; 0x800201 <stepper_a_hasPreviouslyMoved>
    12a4:	81 30       	cpi	r24, 0x01	; 1
    12a6:	89 f4       	brne	.+34     	; 0x12ca <stepper_a_loop+0x126>
    12a8:	10 92 01 02 	sts	0x0201, r1	; 0x800201 <stepper_a_hasPreviouslyMoved>
	{
		stepper_a_hasPreviouslyMoved = 0;
    12ac:	80 91 11 02 	lds	r24, 0x0211	; 0x800211 <stepper_a_hasPreviouslyHomed>

		if (stepper_a_hasPreviouslyHomed)
    12b0:	88 23       	and	r24, r24
    12b2:	39 f0       	breq	.+14     	; 0x12c2 <stepper_a_loop+0x11e>
    12b4:	10 92 11 02 	sts	0x0211, r1	; 0x800211 <stepper_a_hasPreviouslyHomed>
		{
			stepper_a_hasPreviouslyHomed = 0;
    12b8:	63 e6       	ldi	r22, 0x63	; 99
			CDC_Device_SendString(pInterface, "TH!\r");
    12ba:	71 e0       	ldi	r23, 0x01	; 1
    12bc:	c8 01       	movw	r24, r16
    12be:	92 d0       	rcall	.+292    	; 0x13e4 <CDC_Device_SendString>
    12c0:	04 c0       	rjmp	.+8      	; 0x12ca <stepper_a_loop+0x126>
    12c2:	68 e6       	ldi	r22, 0x68	; 104
		}
		else
		{
			CDC_Device_SendString(pInterface, "TP!\r");
    12c4:	71 e0       	ldi	r23, 0x01	; 1
    12c6:	c8 01       	movw	r24, r16
    12c8:	8d d0       	rcall	.+282    	; 0x13e4 <CDC_Device_SendString>
    12ca:	cf 91       	pop	r28
    12cc:	1f 91       	pop	r17
		}
	}
	
}
    12ce:	0f 91       	pop	r16
    12d0:	08 95       	ret

000012d2 <__vector_17>:
    12d2:	1f 92       	push	r1
    12d4:	0f 92       	push	r0
	
}



ISR(TIMER1_COMPA_vect){
    12d6:	0f b6       	in	r0, 0x3f	; 63
    12d8:	0f 92       	push	r0
    12da:	11 24       	eor	r1, r1
    12dc:	2f 93       	push	r18
    12de:	3f 93       	push	r19
    12e0:	4f 93       	push	r20
    12e2:	5f 93       	push	r21
    12e4:	6f 93       	push	r22
    12e6:	7f 93       	push	r23
    12e8:	8f 93       	push	r24
    12ea:	9f 93       	push	r25
    12ec:	af 93       	push	r26
    12ee:	bf 93       	push	r27
    12f0:	ef 93       	push	r30
    12f2:	ff 93       	push	r31
	PORTB ^= (1<<0);    //Bit setzen, LED TOGGLE
    12f4:	95 b1       	in	r25, 0x05	; 5
    12f6:	81 e0       	ldi	r24, 0x01	; 1
    12f8:	89 27       	eor	r24, r25
    12fa:	85 b9       	out	0x05, r24	; 5
	PORTD ^= (1<<5);    //Bit loeschen, LED TOGGLE
    12fc:	9b b1       	in	r25, 0x0b	; 11
    12fe:	80 e2       	ldi	r24, 0x20	; 32
    1300:	89 27       	eor	r24, r25
    1302:	8b b9       	out	0x0b, r24	; 11
	
	STEPPER_A_TIMER_TCNT = 0;
    1304:	10 92 85 00 	sts	0x0085, r1	; 0x800085 <__TEXT_REGION_LENGTH__+0x7f8085>
    1308:	10 92 84 00 	sts	0x0084, r1	; 0x800084 <__TEXT_REGION_LENGTH__+0x7f8084>
	STEPPER_A_STEP_PORT |= (1<<STEPPER_A_STEP_N);    //Step Pin High
    130c:	2e 9a       	sbi	0x05, 6	; 5
	
	if(stepper_a_position == stepper_a_setpoint){
    130e:	40 91 31 02 	lds	r20, 0x0231	; 0x800231 <stepper_a_position>
    1312:	50 91 32 02 	lds	r21, 0x0232	; 0x800232 <stepper_a_position+0x1>
    1316:	60 91 33 02 	lds	r22, 0x0233	; 0x800233 <stepper_a_position+0x2>
    131a:	70 91 34 02 	lds	r23, 0x0234	; 0x800234 <stepper_a_position+0x3>
    131e:	80 91 fa 01 	lds	r24, 0x01FA	; 0x8001fa <stepper_a_setpoint>
    1322:	90 91 fb 01 	lds	r25, 0x01FB	; 0x8001fb <stepper_a_setpoint+0x1>
    1326:	a0 91 fc 01 	lds	r26, 0x01FC	; 0x8001fc <stepper_a_setpoint+0x2>
    132a:	b0 91 fd 01 	lds	r27, 0x01FD	; 0x8001fd <stepper_a_setpoint+0x3>
    132e:	48 17       	cp	r20, r24
    1330:	59 07       	cpc	r21, r25
    1332:	6a 07       	cpc	r22, r26
    1334:	7b 07       	cpc	r23, r27
    1336:	11 f4       	brne	.+4      	; 0x133c <__vector_17+0x6a>
		//stepper_a_moving = 1;
		stepper_a_setMotionState(0);
    1338:	80 e0       	ldi	r24, 0x00	; 0
    133a:	f5 de       	rcall	.-534    	; 0x1126 <stepper_a_setMotionState>
	}
	stepper_a_position += stepper_a_direction ? 1 : -1;
    133c:	80 91 3c 02 	lds	r24, 0x023C	; 0x80023c <stepper_a_direction>
    1340:	81 11       	cpse	r24, r1
    1342:	04 c0       	rjmp	.+8      	; 0x134c <__vector_17+0x7a>
    1344:	8f ef       	ldi	r24, 0xFF	; 255
    1346:	9f ef       	ldi	r25, 0xFF	; 255
    1348:	dc 01       	movw	r26, r24
    134a:	04 c0       	rjmp	.+8      	; 0x1354 <__vector_17+0x82>
    134c:	81 e0       	ldi	r24, 0x01	; 1
    134e:	90 e0       	ldi	r25, 0x00	; 0
    1350:	a0 e0       	ldi	r26, 0x00	; 0
    1352:	b0 e0       	ldi	r27, 0x00	; 0
    1354:	40 91 31 02 	lds	r20, 0x0231	; 0x800231 <stepper_a_position>
    1358:	50 91 32 02 	lds	r21, 0x0232	; 0x800232 <stepper_a_position+0x1>
    135c:	60 91 33 02 	lds	r22, 0x0233	; 0x800233 <stepper_a_position+0x2>
    1360:	70 91 34 02 	lds	r23, 0x0234	; 0x800234 <stepper_a_position+0x3>
    1364:	84 0f       	add	r24, r20
    1366:	95 1f       	adc	r25, r21
    1368:	a6 1f       	adc	r26, r22
    136a:	b7 1f       	adc	r27, r23
    136c:	80 93 31 02 	sts	0x0231, r24	; 0x800231 <stepper_a_position>
    1370:	90 93 32 02 	sts	0x0232, r25	; 0x800232 <stepper_a_position+0x1>
    1374:	a0 93 33 02 	sts	0x0233, r26	; 0x800233 <stepper_a_position+0x2>
    1378:	b0 93 34 02 	sts	0x0234, r27	; 0x800234 <stepper_a_position+0x3>
	STEPPER_A_STEP_PORT &= ~(1<<STEPPER_A_STEP_N);    //Step Pin Low
    137c:	2e 98       	cbi	0x05, 6	; 5

	
    137e:	ff 91       	pop	r31
    1380:	ef 91       	pop	r30
    1382:	bf 91       	pop	r27
    1384:	af 91       	pop	r26
    1386:	9f 91       	pop	r25
    1388:	8f 91       	pop	r24
    138a:	7f 91       	pop	r23
    138c:	6f 91       	pop	r22
    138e:	5f 91       	pop	r21
    1390:	4f 91       	pop	r20
    1392:	3f 91       	pop	r19
    1394:	2f 91       	pop	r18
    1396:	0f 90       	pop	r0
    1398:	0f be       	out	0x3f, r0	; 63
    139a:	0f 90       	pop	r0
    139c:	1f 90       	pop	r1
    139e:	18 95       	reti

000013a0 <CDC_Device_ConfigureEndpoints>:

	void CDC_Device_CreateBlockingStream(USB_ClassInfo_CDC_Device_t* const CDCInterfaceInfo,
	                                     FILE* const Stream)
	{
		*Stream = (FILE)FDEV_SETUP_STREAM(CDC_Device_putchar, CDC_Device_getchar_Blocking, _FDEV_SETUP_RW);
		fdev_set_udata(Stream, CDCInterfaceInfo);
    13a0:	cf 93       	push	r28
    13a2:	df 93       	push	r29
    13a4:	ec 01       	movw	r28, r24
    13a6:	fc 01       	movw	r30, r24
    13a8:	70 96       	adiw	r30, 0x10	; 16
    13aa:	8b e0       	ldi	r24, 0x0B	; 11
    13ac:	df 01       	movw	r26, r30
    13ae:	1d 92       	st	X+, r1
    13b0:	8a 95       	dec	r24
    13b2:	e9 f7       	brne	.-6      	; 0x13ae <CDC_Device_ConfigureEndpoints+0xe>
    13b4:	82 e0       	ldi	r24, 0x02	; 2
    13b6:	8c 83       	std	Y+4, r24	; 0x04
    13b8:	89 87       	std	Y+9, r24	; 0x09
    13ba:	83 e0       	ldi	r24, 0x03	; 3
    13bc:	8e 87       	std	Y+14, r24	; 0x0e
    13be:	61 e0       	ldi	r22, 0x01	; 1
    13c0:	ce 01       	movw	r24, r28
    13c2:	01 96       	adiw	r24, 0x01	; 1
    13c4:	4f d3       	rcall	.+1694   	; 0x1a64 <Endpoint_ConfigureEndpointTable>
    13c6:	88 23       	and	r24, r24
    13c8:	51 f0       	breq	.+20     	; 0x13de <CDC_Device_ConfigureEndpoints+0x3e>
    13ca:	61 e0       	ldi	r22, 0x01	; 1
    13cc:	ce 01       	movw	r24, r28
    13ce:	06 96       	adiw	r24, 0x06	; 6
    13d0:	49 d3       	rcall	.+1682   	; 0x1a64 <Endpoint_ConfigureEndpointTable>
    13d2:	88 23       	and	r24, r24
    13d4:	21 f0       	breq	.+8      	; 0x13de <CDC_Device_ConfigureEndpoints+0x3e>
    13d6:	61 e0       	ldi	r22, 0x01	; 1
    13d8:	ce 01       	movw	r24, r28
    13da:	0b 96       	adiw	r24, 0x0b	; 11
    13dc:	43 d3       	rcall	.+1670   	; 0x1a64 <Endpoint_ConfigureEndpointTable>
    13de:	df 91       	pop	r29
    13e0:	cf 91       	pop	r28
    13e2:	08 95       	ret

000013e4 <CDC_Device_SendString>:
    13e4:	fc 01       	movw	r30, r24
    13e6:	90 91 41 02 	lds	r25, 0x0241	; 0x800241 <USB_DeviceState>
    13ea:	94 30       	cpi	r25, 0x04	; 4
    13ec:	c9 f4       	brne	.+50     	; 0x1420 <CDC_Device_SendString+0x3c>
    13ee:	84 89       	ldd	r24, Z+20	; 0x14
    13f0:	95 89       	ldd	r25, Z+21	; 0x15
    13f2:	a6 89       	ldd	r26, Z+22	; 0x16
    13f4:	b7 89       	ldd	r27, Z+23	; 0x17
    13f6:	89 2b       	or	r24, r25
    13f8:	8a 2b       	or	r24, r26
    13fa:	8b 2b       	or	r24, r27
    13fc:	99 f0       	breq	.+38     	; 0x1424 <CDC_Device_SendString+0x40>
    13fe:	cb 01       	movw	r24, r22
    1400:	21 81       	ldd	r18, Z+1	; 0x01
    1402:	2f 70       	andi	r18, 0x0F	; 15
    1404:	20 93 e9 00 	sts	0x00E9, r18	; 0x8000e9 <__TEXT_REGION_LENGTH__+0x7f80e9>
    1408:	fb 01       	movw	r30, r22
    140a:	01 90       	ld	r0, Z+
    140c:	00 20       	and	r0, r0
    140e:	e9 f7       	brne	.-6      	; 0x140a <CDC_Device_SendString+0x26>
    1410:	31 97       	sbiw	r30, 0x01	; 1
    1412:	bf 01       	movw	r22, r30
    1414:	68 1b       	sub	r22, r24
    1416:	79 0b       	sbc	r23, r25
    1418:	40 e0       	ldi	r20, 0x00	; 0
    141a:	50 e0       	ldi	r21, 0x00	; 0
    141c:	58 c1       	rjmp	.+688    	; 0x16ce <Endpoint_Write_Stream_LE>
    141e:	08 95       	ret
    1420:	82 e0       	ldi	r24, 0x02	; 2
    1422:	08 95       	ret
    1424:	82 e0       	ldi	r24, 0x02	; 2
    1426:	08 95       	ret

00001428 <CDC_Device_SendByte>:
    1428:	cf 93       	push	r28
    142a:	fc 01       	movw	r30, r24
    142c:	90 91 41 02 	lds	r25, 0x0241	; 0x800241 <USB_DeviceState>
    1430:	94 30       	cpi	r25, 0x04	; 4
    1432:	e9 f4       	brne	.+58     	; 0x146e <CDC_Device_SendByte+0x46>
    1434:	84 89       	ldd	r24, Z+20	; 0x14
    1436:	95 89       	ldd	r25, Z+21	; 0x15
    1438:	a6 89       	ldd	r26, Z+22	; 0x16
    143a:	b7 89       	ldd	r27, Z+23	; 0x17
    143c:	89 2b       	or	r24, r25
    143e:	8a 2b       	or	r24, r26
    1440:	8b 2b       	or	r24, r27
    1442:	b9 f0       	breq	.+46     	; 0x1472 <CDC_Device_SendByte+0x4a>
    1444:	c6 2f       	mov	r28, r22
    1446:	81 81       	ldd	r24, Z+1	; 0x01
    1448:	8f 70       	andi	r24, 0x0F	; 15
    144a:	80 93 e9 00 	sts	0x00E9, r24	; 0x8000e9 <__TEXT_REGION_LENGTH__+0x7f80e9>
    144e:	80 91 e8 00 	lds	r24, 0x00E8	; 0x8000e8 <__TEXT_REGION_LENGTH__+0x7f80e8>
    1452:	85 fd       	sbrc	r24, 5
    1454:	08 c0       	rjmp	.+16     	; 0x1466 <CDC_Device_SendByte+0x3e>
    1456:	e8 ee       	ldi	r30, 0xE8	; 232
    1458:	f0 e0       	ldi	r31, 0x00	; 0
    145a:	80 81       	ld	r24, Z
    145c:	8e 77       	andi	r24, 0x7E	; 126
    145e:	80 83       	st	Z, r24
    1460:	74 d3       	rcall	.+1768   	; 0x1b4a <Endpoint_WaitUntilReady>
    1462:	81 11       	cpse	r24, r1
    1464:	07 c0       	rjmp	.+14     	; 0x1474 <CDC_Device_SendByte+0x4c>
    1466:	c0 93 f1 00 	sts	0x00F1, r28	; 0x8000f1 <__TEXT_REGION_LENGTH__+0x7f80f1>
    146a:	80 e0       	ldi	r24, 0x00	; 0
    146c:	03 c0       	rjmp	.+6      	; 0x1474 <CDC_Device_SendByte+0x4c>
    146e:	82 e0       	ldi	r24, 0x02	; 2
    1470:	01 c0       	rjmp	.+2      	; 0x1474 <CDC_Device_SendByte+0x4c>
    1472:	82 e0       	ldi	r24, 0x02	; 2
    1474:	cf 91       	pop	r28
    1476:	08 95       	ret

00001478 <CDC_Device_Flush>:
    1478:	fc 01       	movw	r30, r24
    147a:	90 91 41 02 	lds	r25, 0x0241	; 0x800241 <USB_DeviceState>
    147e:	94 30       	cpi	r25, 0x04	; 4
    1480:	29 f5       	brne	.+74     	; 0x14cc <CDC_Device_Flush+0x54>
    1482:	84 89       	ldd	r24, Z+20	; 0x14
    1484:	95 89       	ldd	r25, Z+21	; 0x15
    1486:	a6 89       	ldd	r26, Z+22	; 0x16
    1488:	b7 89       	ldd	r27, Z+23	; 0x17
    148a:	89 2b       	or	r24, r25
    148c:	8a 2b       	or	r24, r26
    148e:	8b 2b       	or	r24, r27
    1490:	f9 f0       	breq	.+62     	; 0x14d0 <CDC_Device_Flush+0x58>
    1492:	81 81       	ldd	r24, Z+1	; 0x01
    1494:	8f 70       	andi	r24, 0x0F	; 15
    1496:	80 93 e9 00 	sts	0x00E9, r24	; 0x8000e9 <__TEXT_REGION_LENGTH__+0x7f80e9>
    149a:	20 91 f3 00 	lds	r18, 0x00F3	; 0x8000f3 <__TEXT_REGION_LENGTH__+0x7f80f3>
    149e:	80 91 f2 00 	lds	r24, 0x00F2	; 0x8000f2 <__TEXT_REGION_LENGTH__+0x7f80f2>
    14a2:	90 e0       	ldi	r25, 0x00	; 0
    14a4:	92 2b       	or	r25, r18
    14a6:	89 2b       	or	r24, r25
    14a8:	a9 f0       	breq	.+42     	; 0x14d4 <CDC_Device_Flush+0x5c>
    14aa:	e8 ee       	ldi	r30, 0xE8	; 232
    14ac:	f0 e0       	ldi	r31, 0x00	; 0
    14ae:	90 81       	ld	r25, Z
    14b0:	80 81       	ld	r24, Z
    14b2:	8e 77       	andi	r24, 0x7E	; 126
    14b4:	80 83       	st	Z, r24
    14b6:	95 fd       	sbrc	r25, 5
    14b8:	0f c0       	rjmp	.+30     	; 0x14d8 <CDC_Device_Flush+0x60>
    14ba:	47 d3       	rcall	.+1678   	; 0x1b4a <Endpoint_WaitUntilReady>
    14bc:	81 11       	cpse	r24, r1
    14be:	0d c0       	rjmp	.+26     	; 0x14da <CDC_Device_Flush+0x62>
    14c0:	e8 ee       	ldi	r30, 0xE8	; 232
    14c2:	f0 e0       	ldi	r31, 0x00	; 0
    14c4:	90 81       	ld	r25, Z
    14c6:	9e 77       	andi	r25, 0x7E	; 126
    14c8:	90 83       	st	Z, r25
    14ca:	08 95       	ret
    14cc:	82 e0       	ldi	r24, 0x02	; 2
    14ce:	08 95       	ret
    14d0:	82 e0       	ldi	r24, 0x02	; 2
    14d2:	08 95       	ret
    14d4:	80 e0       	ldi	r24, 0x00	; 0
    14d6:	08 95       	ret
    14d8:	80 e0       	ldi	r24, 0x00	; 0
    14da:	08 95       	ret

000014dc <CDC_Device_USBTask>:
    14dc:	fc 01       	movw	r30, r24
    14de:	90 91 41 02 	lds	r25, 0x0241	; 0x800241 <USB_DeviceState>
    14e2:	94 30       	cpi	r25, 0x04	; 4
    14e4:	91 f4       	brne	.+36     	; 0x150a <CDC_Device_USBTask+0x2e>
    14e6:	84 89       	ldd	r24, Z+20	; 0x14
    14e8:	95 89       	ldd	r25, Z+21	; 0x15
    14ea:	a6 89       	ldd	r26, Z+22	; 0x16
    14ec:	b7 89       	ldd	r27, Z+23	; 0x17
    14ee:	89 2b       	or	r24, r25
    14f0:	8a 2b       	or	r24, r26
    14f2:	8b 2b       	or	r24, r27
    14f4:	51 f0       	breq	.+20     	; 0x150a <CDC_Device_USBTask+0x2e>
    14f6:	81 81       	ldd	r24, Z+1	; 0x01
    14f8:	8f 70       	andi	r24, 0x0F	; 15
    14fa:	80 93 e9 00 	sts	0x00E9, r24	; 0x8000e9 <__TEXT_REGION_LENGTH__+0x7f80e9>
    14fe:	80 91 e8 00 	lds	r24, 0x00E8	; 0x8000e8 <__TEXT_REGION_LENGTH__+0x7f80e8>
    1502:	80 ff       	sbrs	r24, 0
    1504:	02 c0       	rjmp	.+4      	; 0x150a <CDC_Device_USBTask+0x2e>
    1506:	cf 01       	movw	r24, r30
    1508:	b7 cf       	rjmp	.-146    	; 0x1478 <CDC_Device_Flush>
    150a:	08 95       	ret

0000150c <CDC_Device_ReceiveByte>:
    150c:	20 91 41 02 	lds	r18, 0x0241	; 0x800241 <USB_DeviceState>
    1510:	24 30       	cpi	r18, 0x04	; 4
    1512:	79 f5       	brne	.+94     	; 0x1572 <CDC_Device_ReceiveByte+0x66>
    1514:	fc 01       	movw	r30, r24
    1516:	44 89       	ldd	r20, Z+20	; 0x14
    1518:	55 89       	ldd	r21, Z+21	; 0x15
    151a:	66 89       	ldd	r22, Z+22	; 0x16
    151c:	77 89       	ldd	r23, Z+23	; 0x17
    151e:	45 2b       	or	r20, r21
    1520:	46 2b       	or	r20, r22
    1522:	47 2b       	or	r20, r23
    1524:	49 f1       	breq	.+82     	; 0x1578 <CDC_Device_ReceiveByte+0x6c>
    1526:	86 81       	ldd	r24, Z+6	; 0x06
    1528:	8f 70       	andi	r24, 0x0F	; 15
    152a:	80 93 e9 00 	sts	0x00E9, r24	; 0x8000e9 <__TEXT_REGION_LENGTH__+0x7f80e9>
    152e:	80 91 e8 00 	lds	r24, 0x00E8	; 0x8000e8 <__TEXT_REGION_LENGTH__+0x7f80e8>
    1532:	82 ff       	sbrs	r24, 2
    1534:	24 c0       	rjmp	.+72     	; 0x157e <CDC_Device_ReceiveByte+0x72>
    1536:	20 91 f3 00 	lds	r18, 0x00F3	; 0x8000f3 <__TEXT_REGION_LENGTH__+0x7f80f3>
    153a:	80 91 f2 00 	lds	r24, 0x00F2	; 0x8000f2 <__TEXT_REGION_LENGTH__+0x7f80f2>
    153e:	90 e0       	ldi	r25, 0x00	; 0
    1540:	92 2b       	or	r25, r18
    1542:	89 2b       	or	r24, r25
    1544:	21 f0       	breq	.+8      	; 0x154e <CDC_Device_ReceiveByte+0x42>
    1546:	20 91 f1 00 	lds	r18, 0x00F1	; 0x8000f1 <__TEXT_REGION_LENGTH__+0x7f80f1>
    154a:	30 e0       	ldi	r19, 0x00	; 0
    154c:	02 c0       	rjmp	.+4      	; 0x1552 <CDC_Device_ReceiveByte+0x46>
    154e:	2f ef       	ldi	r18, 0xFF	; 255
    1550:	3f ef       	ldi	r19, 0xFF	; 255
    1552:	40 91 f3 00 	lds	r20, 0x00F3	; 0x8000f3 <__TEXT_REGION_LENGTH__+0x7f80f3>
    1556:	80 91 f2 00 	lds	r24, 0x00F2	; 0x8000f2 <__TEXT_REGION_LENGTH__+0x7f80f2>
    155a:	90 e0       	ldi	r25, 0x00	; 0
    155c:	94 2b       	or	r25, r20
    155e:	89 2b       	or	r24, r25
    1560:	89 f4       	brne	.+34     	; 0x1584 <CDC_Device_ReceiveByte+0x78>
    1562:	e8 ee       	ldi	r30, 0xE8	; 232
    1564:	f0 e0       	ldi	r31, 0x00	; 0
    1566:	80 81       	ld	r24, Z
    1568:	8b 77       	andi	r24, 0x7B	; 123
    156a:	80 83       	st	Z, r24
    156c:	82 2f       	mov	r24, r18
    156e:	93 2f       	mov	r25, r19
    1570:	08 95       	ret
    1572:	8f ef       	ldi	r24, 0xFF	; 255
    1574:	9f ef       	ldi	r25, 0xFF	; 255
    1576:	08 95       	ret
    1578:	8f ef       	ldi	r24, 0xFF	; 255
    157a:	9f ef       	ldi	r25, 0xFF	; 255
    157c:	08 95       	ret
    157e:	8f ef       	ldi	r24, 0xFF	; 255
    1580:	9f ef       	ldi	r25, 0xFF	; 255
    1582:	08 95       	ret
    1584:	82 2f       	mov	r24, r18
    1586:	93 2f       	mov	r25, r19
    1588:	08 95       	ret

0000158a <CDC_Device_Event_Stub>:
		return ReceivedByte;
	}
#endif

void CDC_Device_Event_Stub(USB_ClassInfo_CDC_Device_t* const CDCInterfaceInfo)
{
    158a:	08 95       	ret

0000158c <CDC_Device_Event_Stub_2>:

}

void CDC_Device_Event_Stub_2(USB_ClassInfo_CDC_Device_t* const CDCInterfaceInfo, const uint8_t _1)
{
    158c:	08 95       	ret

0000158e <CDC_Device_ProcessControlRequest>:
#define  __INCLUDE_FROM_CDC_DRIVER
#define  __INCLUDE_FROM_CDC_DEVICE_C
#include "CDCClassDevice.h"

void CDC_Device_ProcessControlRequest(USB_ClassInfo_CDC_Device_t* const CDCInterfaceInfo)
{
    158e:	cf 93       	push	r28
    1590:	df 93       	push	r29
    1592:	fc 01       	movw	r30, r24
			 *  \return Boolean \c true if the selected endpoint has received a SETUP packet, \c false otherwise.
			 */
			static inline bool Endpoint_IsSETUPReceived(void) ATTR_WARN_UNUSED_RESULT ATTR_ALWAYS_INLINE;
			static inline bool Endpoint_IsSETUPReceived(void)
			{
				return ((UEINTX & (1 << RXSTPI)) ? true : false);
    1594:	90 91 e8 00 	lds	r25, 0x00E8	; 0x8000e8 <__TEXT_REGION_LENGTH__+0x7f80e8>
	if (!(Endpoint_IsSETUPReceived()))
    1598:	93 ff       	sbrs	r25, 3
    159a:	96 c0       	rjmp	.+300    	; 0x16c8 <CDC_Device_ProcessControlRequest+0x13a>
	  return;

	if (USB_ControlRequest.wIndex != CDCInterfaceInfo->Config.ControlInterfaceNumber)
    159c:	20 81       	ld	r18, Z
    159e:	30 e0       	ldi	r19, 0x00	; 0
    15a0:	80 91 46 02 	lds	r24, 0x0246	; 0x800246 <USB_ControlRequest+0x4>
    15a4:	90 91 47 02 	lds	r25, 0x0247	; 0x800247 <USB_ControlRequest+0x5>
    15a8:	82 17       	cp	r24, r18
    15aa:	93 07       	cpc	r25, r19
    15ac:	09 f0       	breq	.+2      	; 0x15b0 <CDC_Device_ProcessControlRequest+0x22>
    15ae:	8c c0       	rjmp	.+280    	; 0x16c8 <CDC_Device_ProcessControlRequest+0x13a>
    15b0:	ef 01       	movw	r28, r30
	  return;

	switch (USB_ControlRequest.bRequest)
    15b2:	80 91 43 02 	lds	r24, 0x0243	; 0x800243 <USB_ControlRequest+0x1>
    15b6:	81 32       	cpi	r24, 0x21	; 33
    15b8:	59 f0       	breq	.+22     	; 0x15d0 <CDC_Device_ProcessControlRequest+0x42>
    15ba:	18 f4       	brcc	.+6      	; 0x15c2 <CDC_Device_ProcessControlRequest+0x34>
    15bc:	80 32       	cpi	r24, 0x20	; 32
    15be:	b9 f1       	breq	.+110    	; 0x162e <CDC_Device_ProcessControlRequest+0xa0>
    15c0:	83 c0       	rjmp	.+262    	; 0x16c8 <CDC_Device_ProcessControlRequest+0x13a>
    15c2:	82 32       	cpi	r24, 0x22	; 34
    15c4:	09 f4       	brne	.+2      	; 0x15c8 <CDC_Device_ProcessControlRequest+0x3a>
    15c6:	5f c0       	rjmp	.+190    	; 0x1686 <CDC_Device_ProcessControlRequest+0xf8>
    15c8:	83 32       	cpi	r24, 0x23	; 35
    15ca:	09 f4       	brne	.+2      	; 0x15ce <CDC_Device_ProcessControlRequest+0x40>
    15cc:	6f c0       	rjmp	.+222    	; 0x16ac <CDC_Device_ProcessControlRequest+0x11e>
    15ce:	7c c0       	rjmp	.+248    	; 0x16c8 <CDC_Device_ProcessControlRequest+0x13a>
	{
		case CDC_REQ_GetLineEncoding:
			if (USB_ControlRequest.bmRequestType == (REQDIR_DEVICETOHOST | REQTYPE_CLASS | REQREC_INTERFACE))
    15d0:	80 91 42 02 	lds	r24, 0x0242	; 0x800242 <USB_ControlRequest>
    15d4:	81 3a       	cpi	r24, 0xA1	; 161
    15d6:	09 f0       	breq	.+2      	; 0x15da <CDC_Device_ProcessControlRequest+0x4c>
    15d8:	77 c0       	rjmp	.+238    	; 0x16c8 <CDC_Device_ProcessControlRequest+0x13a>
			 *  \note This is not applicable for non CONTROL type endpoints.
			 */
			static inline void Endpoint_ClearSETUP(void) ATTR_ALWAYS_INLINE;
			static inline void Endpoint_ClearSETUP(void)
			{
				UEINTX &= ~(1 << RXSTPI);
    15da:	e8 ee       	ldi	r30, 0xE8	; 232
    15dc:	f0 e0       	ldi	r31, 0x00	; 0
    15de:	80 81       	ld	r24, Z
    15e0:	87 7f       	andi	r24, 0xF7	; 247
    15e2:	80 83       	st	Z, r24
			 *  \return Boolean \c true if the current endpoint is ready for an IN packet, \c false otherwise.
			 */
			static inline bool Endpoint_IsINReady(void) ATTR_WARN_UNUSED_RESULT ATTR_ALWAYS_INLINE;
			static inline bool Endpoint_IsINReady(void)
			{
				return ((UEINTX & (1 << TXINI)) ? true : false);
    15e4:	80 81       	ld	r24, Z
			{
				Endpoint_ClearSETUP();

				while (!(Endpoint_IsINReady()));
    15e6:	80 ff       	sbrs	r24, 0
    15e8:	fd cf       	rjmp	.-6      	; 0x15e4 <CDC_Device_ProcessControlRequest+0x56>

				Endpoint_Write_32_LE(CDCInterfaceInfo->State.LineEncoding.BaudRateBPS);
    15ea:	8c 89       	ldd	r24, Y+20	; 0x14
    15ec:	9d 89       	ldd	r25, Y+21	; 0x15
    15ee:	ae 89       	ldd	r26, Y+22	; 0x16
    15f0:	bf 89       	ldd	r27, Y+23	; 0x17
			 *  \param[in] Data  Data to write to the currently selected endpoint's FIFO buffer.
			 */
			static inline void Endpoint_Write_32_LE(const uint32_t Data) ATTR_ALWAYS_INLINE;
			static inline void Endpoint_Write_32_LE(const uint32_t Data)
			{
				UEDATX = (Data &  0xFF);
    15f2:	e1 ef       	ldi	r30, 0xF1	; 241
    15f4:	f0 e0       	ldi	r31, 0x00	; 0
    15f6:	80 83       	st	Z, r24
				UEDATX = (Data >> 8);
    15f8:	49 2f       	mov	r20, r25
    15fa:	5a 2f       	mov	r21, r26
    15fc:	6b 2f       	mov	r22, r27
    15fe:	77 27       	eor	r23, r23
    1600:	40 83       	st	Z, r20
				UEDATX = (Data >> 16);
    1602:	ad 01       	movw	r20, r26
    1604:	66 27       	eor	r22, r22
    1606:	77 27       	eor	r23, r23
    1608:	40 83       	st	Z, r20
				UEDATX = (Data >> 24);
    160a:	8b 2f       	mov	r24, r27
    160c:	99 27       	eor	r25, r25
    160e:	aa 27       	eor	r26, r26
    1610:	bb 27       	eor	r27, r27
    1612:	80 83       	st	Z, r24
				Endpoint_Write_8(CDCInterfaceInfo->State.LineEncoding.CharFormat);
    1614:	88 8d       	ldd	r24, Y+24	; 0x18
			 *  \param[in] Data  Data to write into the the currently selected endpoint's FIFO buffer.
			 */
			static inline void Endpoint_Write_8(const uint8_t Data) ATTR_ALWAYS_INLINE;
			static inline void Endpoint_Write_8(const uint8_t Data)
			{
				UEDATX = Data;
    1616:	80 83       	st	Z, r24
				Endpoint_Write_8(CDCInterfaceInfo->State.LineEncoding.ParityType);
    1618:	89 8d       	ldd	r24, Y+25	; 0x19
    161a:	80 83       	st	Z, r24
				Endpoint_Write_8(CDCInterfaceInfo->State.LineEncoding.DataBits);
    161c:	8a 8d       	ldd	r24, Y+26	; 0x1a
    161e:	80 83       	st	Z, r24
			 */
			static inline void Endpoint_ClearIN(void) ATTR_ALWAYS_INLINE;
			static inline void Endpoint_ClearIN(void)
			{
				#if !defined(CONTROL_ONLY_DEVICE)
					UEINTX &= ~((1 << TXINI) | (1 << FIFOCON));
    1620:	e8 ee       	ldi	r30, 0xE8	; 232
    1622:	f0 e0       	ldi	r31, 0x00	; 0
    1624:	80 81       	ld	r24, Z
    1626:	8e 77       	andi	r24, 0x7E	; 126
    1628:	80 83       	st	Z, r24

				Endpoint_ClearIN();
				Endpoint_ClearStatusStage();
    162a:	6b d2       	rcall	.+1238   	; 0x1b02 <Endpoint_ClearStatusStage>
    162c:	4d c0       	rjmp	.+154    	; 0x16c8 <CDC_Device_ProcessControlRequest+0x13a>
			}

			break;
		case CDC_REQ_SetLineEncoding:
			if (USB_ControlRequest.bmRequestType == (REQDIR_HOSTTODEVICE | REQTYPE_CLASS | REQREC_INTERFACE))
    162e:	80 91 42 02 	lds	r24, 0x0242	; 0x800242 <USB_ControlRequest>
    1632:	81 32       	cpi	r24, 0x21	; 33
    1634:	09 f0       	breq	.+2      	; 0x1638 <CDC_Device_ProcessControlRequest+0xaa>
    1636:	48 c0       	rjmp	.+144    	; 0x16c8 <CDC_Device_ProcessControlRequest+0x13a>
			 *  \note This is not applicable for non CONTROL type endpoints.
			 */
			static inline void Endpoint_ClearSETUP(void) ATTR_ALWAYS_INLINE;
			static inline void Endpoint_ClearSETUP(void)
			{
				UEINTX &= ~(1 << RXSTPI);
    1638:	e8 ee       	ldi	r30, 0xE8	; 232
    163a:	f0 e0       	ldi	r31, 0x00	; 0
    163c:	80 81       	ld	r24, Z
    163e:	87 7f       	andi	r24, 0xF7	; 247
    1640:	80 83       	st	Z, r24
    1642:	05 c0       	rjmp	.+10     	; 0x164e <CDC_Device_ProcessControlRequest+0xc0>
			{
				Endpoint_ClearSETUP();

				while (!(Endpoint_IsOUTReceived()))
				{
					if (USB_DeviceState == DEVICE_STATE_Unattached)
    1644:	80 91 41 02 	lds	r24, 0x0241	; 0x800241 <USB_DeviceState>
    1648:	88 23       	and	r24, r24
    164a:	09 f4       	brne	.+2      	; 0x164e <CDC_Device_ProcessControlRequest+0xc0>
    164c:	3d c0       	rjmp	.+122    	; 0x16c8 <CDC_Device_ProcessControlRequest+0x13a>
			 *  \return Boolean \c true if current endpoint is has received an OUT packet, \c false otherwise.
			 */
			static inline bool Endpoint_IsOUTReceived(void) ATTR_WARN_UNUSED_RESULT ATTR_ALWAYS_INLINE;
			static inline bool Endpoint_IsOUTReceived(void)
			{
				return ((UEINTX & (1 << RXOUTI)) ? true : false);
    164e:	80 81       	ld	r24, Z
		case CDC_REQ_SetLineEncoding:
			if (USB_ControlRequest.bmRequestType == (REQDIR_HOSTTODEVICE | REQTYPE_CLASS | REQREC_INTERFACE))
			{
				Endpoint_ClearSETUP();

				while (!(Endpoint_IsOUTReceived()))
    1650:	82 ff       	sbrs	r24, 2
    1652:	f8 cf       	rjmp	.-16     	; 0x1644 <CDC_Device_ProcessControlRequest+0xb6>
				{
					uint32_t Value;
					uint8_t  Bytes[4];
				} Data;

				Data.Bytes[0] = UEDATX;
    1654:	e1 ef       	ldi	r30, 0xF1	; 241
    1656:	f0 e0       	ldi	r31, 0x00	; 0
    1658:	30 81       	ld	r19, Z
				Data.Bytes[1] = UEDATX;
    165a:	20 81       	ld	r18, Z
				Data.Bytes[2] = UEDATX;
    165c:	90 81       	ld	r25, Z
				Data.Bytes[3] = UEDATX;
    165e:	80 81       	ld	r24, Z
				{
					if (USB_DeviceState == DEVICE_STATE_Unattached)
					  return;
				}

				CDCInterfaceInfo->State.LineEncoding.BaudRateBPS = Endpoint_Read_32_LE();
    1660:	3c 8b       	std	Y+20, r19	; 0x14
    1662:	2d 8b       	std	Y+21, r18	; 0x15
    1664:	9e 8b       	std	Y+22, r25	; 0x16
    1666:	8f 8b       	std	Y+23, r24	; 0x17
			 *  \return Next byte in the currently selected endpoint's FIFO buffer.
			 */
			static inline uint8_t Endpoint_Read_8(void) ATTR_WARN_UNUSED_RESULT ATTR_ALWAYS_INLINE;
			static inline uint8_t Endpoint_Read_8(void)
			{
				return UEDATX;
    1668:	80 81       	ld	r24, Z
				CDCInterfaceInfo->State.LineEncoding.CharFormat  = Endpoint_Read_8();
    166a:	88 8f       	std	Y+24, r24	; 0x18
    166c:	80 81       	ld	r24, Z
				CDCInterfaceInfo->State.LineEncoding.ParityType  = Endpoint_Read_8();
    166e:	89 8f       	std	Y+25, r24	; 0x19
    1670:	80 81       	ld	r24, Z
				CDCInterfaceInfo->State.LineEncoding.DataBits    = Endpoint_Read_8();
    1672:	8a 8f       	std	Y+26, r24	; 0x1a
			 */
			static inline void Endpoint_ClearOUT(void) ATTR_ALWAYS_INLINE;
			static inline void Endpoint_ClearOUT(void)
			{
				#if !defined(CONTROL_ONLY_DEVICE)
					UEINTX &= ~((1 << RXOUTI) | (1 << FIFOCON));
    1674:	e8 ee       	ldi	r30, 0xE8	; 232
    1676:	f0 e0       	ldi	r31, 0x00	; 0
    1678:	80 81       	ld	r24, Z
    167a:	8b 77       	andi	r24, 0x7B	; 123

				Endpoint_ClearOUT();
				Endpoint_ClearStatusStage();
    167c:	80 83       	st	Z, r24

				EVENT_CDC_Device_LineEncodingChanged(CDCInterfaceInfo);
    167e:	41 d2       	rcall	.+1154   	; 0x1b02 <Endpoint_ClearStatusStage>
    1680:	ce 01       	movw	r24, r28
    1682:	83 df       	rcall	.-250    	; 0x158a <CDC_Device_Event_Stub>
    1684:	21 c0       	rjmp	.+66     	; 0x16c8 <CDC_Device_ProcessControlRequest+0x13a>
			}

			break;
		case CDC_REQ_SetControlLineState:
			if (USB_ControlRequest.bmRequestType == (REQDIR_HOSTTODEVICE | REQTYPE_CLASS | REQREC_INTERFACE))
    1686:	80 91 42 02 	lds	r24, 0x0242	; 0x800242 <USB_ControlRequest>
    168a:	81 32       	cpi	r24, 0x21	; 33
    168c:	e9 f4       	brne	.+58     	; 0x16c8 <CDC_Device_ProcessControlRequest+0x13a>
			 *  \note This is not applicable for non CONTROL type endpoints.
			 */
			static inline void Endpoint_ClearSETUP(void) ATTR_ALWAYS_INLINE;
			static inline void Endpoint_ClearSETUP(void)
			{
				UEINTX &= ~(1 << RXSTPI);
    168e:	e8 ee       	ldi	r30, 0xE8	; 232
    1690:	f0 e0       	ldi	r31, 0x00	; 0
    1692:	80 81       	ld	r24, Z
    1694:	87 7f       	andi	r24, 0xF7	; 247
			{
				Endpoint_ClearSETUP();
				Endpoint_ClearStatusStage();
    1696:	80 83       	st	Z, r24
    1698:	34 d2       	rcall	.+1128   	; 0x1b02 <Endpoint_ClearStatusStage>

				CDCInterfaceInfo->State.ControlLineStates.HostToDevice = USB_ControlRequest.wValue;
    169a:	80 91 44 02 	lds	r24, 0x0244	; 0x800244 <USB_ControlRequest+0x2>
    169e:	90 91 45 02 	lds	r25, 0x0245	; 0x800245 <USB_ControlRequest+0x3>
    16a2:	99 8b       	std	Y+17, r25	; 0x11

				EVENT_CDC_Device_ControLineStateChanged(CDCInterfaceInfo);
    16a4:	88 8b       	std	Y+16, r24	; 0x10
    16a6:	ce 01       	movw	r24, r28
    16a8:	f7 d5       	rcall	.+3054   	; 0x2298 <EVENT_CDC_Device_ControLineStateChanged>
    16aa:	0e c0       	rjmp	.+28     	; 0x16c8 <CDC_Device_ProcessControlRequest+0x13a>
			}

			break;
		case CDC_REQ_SendBreak:
			if (USB_ControlRequest.bmRequestType == (REQDIR_HOSTTODEVICE | REQTYPE_CLASS | REQREC_INTERFACE))
    16ac:	80 91 42 02 	lds	r24, 0x0242	; 0x800242 <USB_ControlRequest>
    16b0:	81 32       	cpi	r24, 0x21	; 33
    16b2:	51 f4       	brne	.+20     	; 0x16c8 <CDC_Device_ProcessControlRequest+0x13a>
    16b4:	e8 ee       	ldi	r30, 0xE8	; 232
    16b6:	f0 e0       	ldi	r31, 0x00	; 0
    16b8:	80 81       	ld	r24, Z
    16ba:	87 7f       	andi	r24, 0xF7	; 247
			{
				Endpoint_ClearSETUP();
				Endpoint_ClearStatusStage();
    16bc:	80 83       	st	Z, r24
    16be:	21 d2       	rcall	.+1090   	; 0x1b02 <Endpoint_ClearStatusStage>

				EVENT_CDC_Device_BreakSent(CDCInterfaceInfo, (uint8_t)USB_ControlRequest.wValue);
    16c0:	60 91 44 02 	lds	r22, 0x0244	; 0x800244 <USB_ControlRequest+0x2>
    16c4:	ce 01       	movw	r24, r28
    16c6:	62 df       	rcall	.-316    	; 0x158c <CDC_Device_Event_Stub_2>
    16c8:	df 91       	pop	r29
			}

			break;
	}
}
    16ca:	cf 91       	pop	r28
    16cc:	08 95       	ret

000016ce <Endpoint_Write_Stream_LE>:
    16ce:	8f 92       	push	r8
		else if (USB_DeviceState_LCL == DEVICE_STATE_Suspended)
		  return ENDPOINT_RWCSTREAM_BusSuspended;
	}

	return ENDPOINT_RWCSTREAM_NoError;
}
    16d0:	9f 92       	push	r9
    16d2:	af 92       	push	r10
    16d4:	bf 92       	push	r11
    16d6:	cf 92       	push	r12
    16d8:	df 92       	push	r13
    16da:	ef 92       	push	r14
    16dc:	ff 92       	push	r15
    16de:	0f 93       	push	r16
    16e0:	1f 93       	push	r17
    16e2:	cf 93       	push	r28
    16e4:	df 93       	push	r29
    16e6:	8c 01       	movw	r16, r24
    16e8:	eb 01       	movw	r28, r22
    16ea:	6a 01       	movw	r12, r20
    16ec:	2e d2       	rcall	.+1116   	; 0x1b4a <Endpoint_WaitUntilReady>
    16ee:	81 11       	cpse	r24, r1
    16f0:	3d c0       	rjmp	.+122    	; 0x176c <Endpoint_Write_Stream_LE+0x9e>
    16f2:	c1 14       	cp	r12, r1
    16f4:	d1 04       	cpc	r13, r1
    16f6:	39 f0       	breq	.+14     	; 0x1706 <Endpoint_Write_Stream_LE+0x38>
    16f8:	f6 01       	movw	r30, r12
    16fa:	80 81       	ld	r24, Z
    16fc:	91 81       	ldd	r25, Z+1	; 0x01
    16fe:	c8 1b       	sub	r28, r24
    1700:	d9 0b       	sbc	r29, r25
    1702:	08 0f       	add	r16, r24
    1704:	19 1f       	adc	r17, r25
    1706:	20 97       	sbiw	r28, 0x00	; 0
    1708:	81 f1       	breq	.+96     	; 0x176a <Endpoint_Write_Stream_LE+0x9c>
    170a:	e1 2c       	mov	r14, r1
    170c:	f1 2c       	mov	r15, r1
    170e:	0f 2e       	mov	r0, r31
    1710:	f8 ee       	ldi	r31, 0xE8	; 232
    1712:	8f 2e       	mov	r8, r31
    1714:	91 2c       	mov	r9, r1
    1716:	f0 2d       	mov	r31, r0
    1718:	0f 2e       	mov	r0, r31
    171a:	f1 ef       	ldi	r31, 0xF1	; 241
    171c:	af 2e       	mov	r10, r31
    171e:	b1 2c       	mov	r11, r1
    1720:	f0 2d       	mov	r31, r0
    1722:	f4 01       	movw	r30, r8
    1724:	80 81       	ld	r24, Z
    1726:	85 fd       	sbrc	r24, 5
    1728:	13 c0       	rjmp	.+38     	; 0x1750 <Endpoint_Write_Stream_LE+0x82>
    172a:	80 81       	ld	r24, Z
    172c:	8e 77       	andi	r24, 0x7E	; 126
    172e:	80 83       	st	Z, r24
    1730:	c1 14       	cp	r12, r1
    1732:	d1 04       	cpc	r13, r1
    1734:	49 f0       	breq	.+18     	; 0x1748 <Endpoint_Write_Stream_LE+0x7a>
    1736:	f6 01       	movw	r30, r12
    1738:	80 81       	ld	r24, Z
    173a:	91 81       	ldd	r25, Z+1	; 0x01
    173c:	e8 0e       	add	r14, r24
    173e:	f9 1e       	adc	r15, r25
    1740:	f1 82       	std	Z+1, r15	; 0x01
    1742:	e0 82       	st	Z, r14
    1744:	85 e0       	ldi	r24, 0x05	; 5
    1746:	12 c0       	rjmp	.+36     	; 0x176c <Endpoint_Write_Stream_LE+0x9e>
    1748:	00 d2       	rcall	.+1024   	; 0x1b4a <Endpoint_WaitUntilReady>
    174a:	88 23       	and	r24, r24
    174c:	51 f0       	breq	.+20     	; 0x1762 <Endpoint_Write_Stream_LE+0x94>
    174e:	0e c0       	rjmp	.+28     	; 0x176c <Endpoint_Write_Stream_LE+0x9e>
    1750:	f8 01       	movw	r30, r16
    1752:	81 91       	ld	r24, Z+
    1754:	8f 01       	movw	r16, r30
    1756:	f5 01       	movw	r30, r10
    1758:	80 83       	st	Z, r24
    175a:	21 97       	sbiw	r28, 0x01	; 1
    175c:	ff ef       	ldi	r31, 0xFF	; 255
    175e:	ef 1a       	sub	r14, r31
    1760:	ff 0a       	sbc	r15, r31
    1762:	20 97       	sbiw	r28, 0x00	; 0
    1764:	f1 f6       	brne	.-68     	; 0x1722 <Endpoint_Write_Stream_LE+0x54>
    1766:	80 e0       	ldi	r24, 0x00	; 0
    1768:	01 c0       	rjmp	.+2      	; 0x176c <Endpoint_Write_Stream_LE+0x9e>
    176a:	80 e0       	ldi	r24, 0x00	; 0
    176c:	df 91       	pop	r29
    176e:	cf 91       	pop	r28
    1770:	1f 91       	pop	r17
    1772:	0f 91       	pop	r16
    1774:	ff 90       	pop	r15
    1776:	ef 90       	pop	r14
    1778:	df 90       	pop	r13
    177a:	cf 90       	pop	r12
    177c:	bf 90       	pop	r11
    177e:	af 90       	pop	r10
    1780:	9f 90       	pop	r9
    1782:	8f 90       	pop	r8
    1784:	08 95       	ret

00001786 <Endpoint_Write_Control_Stream_LE>:
    1786:	cf 92       	push	r12
    1788:	df 92       	push	r13
    178a:	ff 92       	push	r15
    178c:	0f 93       	push	r16
    178e:	1f 93       	push	r17
    1790:	cf 93       	push	r28
    1792:	df 93       	push	r29
    1794:	20 91 48 02 	lds	r18, 0x0248	; 0x800248 <USB_ControlRequest+0x6>
    1798:	30 91 49 02 	lds	r19, 0x0249	; 0x800249 <USB_ControlRequest+0x7>
    179c:	26 17       	cp	r18, r22
    179e:	37 07       	cpc	r19, r23
    17a0:	58 f0       	brcs	.+22     	; 0x17b8 <Endpoint_Write_Control_Stream_LE+0x32>
    17a2:	61 15       	cp	r22, r1
    17a4:	71 05       	cpc	r23, r1
    17a6:	39 f4       	brne	.+14     	; 0x17b6 <Endpoint_Write_Control_Stream_LE+0x30>
    17a8:	e8 ee       	ldi	r30, 0xE8	; 232
    17aa:	f0 e0       	ldi	r31, 0x00	; 0
    17ac:	20 81       	ld	r18, Z
    17ae:	2e 77       	andi	r18, 0x7E	; 126
    17b0:	20 83       	st	Z, r18
    17b2:	9b 01       	movw	r18, r22
    17b4:	01 c0       	rjmp	.+2      	; 0x17b8 <Endpoint_Write_Control_Stream_LE+0x32>
    17b6:	9b 01       	movw	r18, r22
    17b8:	a8 2f       	mov	r26, r24
    17ba:	b9 2f       	mov	r27, r25
    17bc:	10 e0       	ldi	r17, 0x00	; 0
    17be:	e8 ee       	ldi	r30, 0xE8	; 232
    17c0:	f0 e0       	ldi	r31, 0x00	; 0
    17c2:	63 ef       	ldi	r22, 0xF3	; 243
    17c4:	70 e0       	ldi	r23, 0x00	; 0
    17c6:	42 ef       	ldi	r20, 0xF2	; 242
    17c8:	50 e0       	ldi	r21, 0x00	; 0
    17ca:	0f 2e       	mov	r0, r31
    17cc:	f1 ef       	ldi	r31, 0xF1	; 241
    17ce:	cf 2e       	mov	r12, r31
    17d0:	d1 2c       	mov	r13, r1
    17d2:	f0 2d       	mov	r31, r0
    17d4:	01 e0       	ldi	r16, 0x01	; 1
    17d6:	f1 2c       	mov	r15, r1
    17d8:	30 c0       	rjmp	.+96     	; 0x183a <Endpoint_Write_Control_Stream_LE+0xb4>
    17da:	80 91 41 02 	lds	r24, 0x0241	; 0x800241 <USB_DeviceState>
    17de:	88 23       	and	r24, r24
    17e0:	09 f4       	brne	.+2      	; 0x17e4 <Endpoint_Write_Control_Stream_LE+0x5e>
    17e2:	42 c0       	rjmp	.+132    	; 0x1868 <Endpoint_Write_Control_Stream_LE+0xe2>
    17e4:	85 30       	cpi	r24, 0x05	; 5
    17e6:	09 f4       	brne	.+2      	; 0x17ea <Endpoint_Write_Control_Stream_LE+0x64>
    17e8:	41 c0       	rjmp	.+130    	; 0x186c <Endpoint_Write_Control_Stream_LE+0xe6>
    17ea:	80 81       	ld	r24, Z
    17ec:	83 fd       	sbrc	r24, 3
    17ee:	40 c0       	rjmp	.+128    	; 0x1870 <Endpoint_Write_Control_Stream_LE+0xea>
    17f0:	80 81       	ld	r24, Z
    17f2:	82 fd       	sbrc	r24, 2
    17f4:	32 c0       	rjmp	.+100    	; 0x185a <Endpoint_Write_Control_Stream_LE+0xd4>
    17f6:	80 81       	ld	r24, Z
    17f8:	80 ff       	sbrs	r24, 0
    17fa:	1f c0       	rjmp	.+62     	; 0x183a <Endpoint_Write_Control_Stream_LE+0xb4>
    17fc:	eb 01       	movw	r28, r22
    17fe:	18 81       	ld	r17, Y
    1800:	ea 01       	movw	r28, r20
    1802:	88 81       	ld	r24, Y
    1804:	90 e0       	ldi	r25, 0x00	; 0
    1806:	91 2b       	or	r25, r17
    1808:	21 15       	cp	r18, r1
    180a:	31 05       	cpc	r19, r1
    180c:	79 f0       	breq	.+30     	; 0x182c <Endpoint_Write_Control_Stream_LE+0xa6>
    180e:	88 30       	cpi	r24, 0x08	; 8
    1810:	91 05       	cpc	r25, r1
    1812:	60 f4       	brcc	.+24     	; 0x182c <Endpoint_Write_Control_Stream_LE+0xa6>
    1814:	1d 91       	ld	r17, X+
    1816:	e6 01       	movw	r28, r12
    1818:	18 83       	st	Y, r17
    181a:	21 50       	subi	r18, 0x01	; 1
    181c:	31 09       	sbc	r19, r1
    181e:	01 96       	adiw	r24, 0x01	; 1
    1820:	21 15       	cp	r18, r1
    1822:	31 05       	cpc	r19, r1
    1824:	19 f0       	breq	.+6      	; 0x182c <Endpoint_Write_Control_Stream_LE+0xa6>
    1826:	88 30       	cpi	r24, 0x08	; 8
    1828:	91 05       	cpc	r25, r1
    182a:	a1 f7       	brne	.-24     	; 0x1814 <Endpoint_Write_Control_Stream_LE+0x8e>
    182c:	10 2f       	mov	r17, r16
    182e:	08 97       	sbiw	r24, 0x08	; 8
    1830:	09 f0       	breq	.+2      	; 0x1834 <Endpoint_Write_Control_Stream_LE+0xae>
    1832:	1f 2d       	mov	r17, r15
    1834:	80 81       	ld	r24, Z
    1836:	8e 77       	andi	r24, 0x7E	; 126
    1838:	80 83       	st	Z, r24
    183a:	21 15       	cp	r18, r1
    183c:	31 05       	cpc	r19, r1
    183e:	69 f6       	brne	.-102    	; 0x17da <Endpoint_Write_Control_Stream_LE+0x54>
    1840:	11 11       	cpse	r17, r1
    1842:	cb cf       	rjmp	.-106    	; 0x17da <Endpoint_Write_Control_Stream_LE+0x54>
    1844:	0a c0       	rjmp	.+20     	; 0x185a <Endpoint_Write_Control_Stream_LE+0xd4>
    1846:	80 91 41 02 	lds	r24, 0x0241	; 0x800241 <USB_DeviceState>
    184a:	88 23       	and	r24, r24
    184c:	99 f0       	breq	.+38     	; 0x1874 <Endpoint_Write_Control_Stream_LE+0xee>
    184e:	85 30       	cpi	r24, 0x05	; 5
    1850:	99 f0       	breq	.+38     	; 0x1878 <Endpoint_Write_Control_Stream_LE+0xf2>
    1852:	80 81       	ld	r24, Z
    1854:	83 ff       	sbrs	r24, 3
    1856:	03 c0       	rjmp	.+6      	; 0x185e <Endpoint_Write_Control_Stream_LE+0xd8>
    1858:	11 c0       	rjmp	.+34     	; 0x187c <Endpoint_Write_Control_Stream_LE+0xf6>
    185a:	e8 ee       	ldi	r30, 0xE8	; 232
    185c:	f0 e0       	ldi	r31, 0x00	; 0
    185e:	80 81       	ld	r24, Z
    1860:	82 ff       	sbrs	r24, 2
    1862:	f1 cf       	rjmp	.-30     	; 0x1846 <Endpoint_Write_Control_Stream_LE+0xc0>
    1864:	80 e0       	ldi	r24, 0x00	; 0
    1866:	0b c0       	rjmp	.+22     	; 0x187e <Endpoint_Write_Control_Stream_LE+0xf8>
    1868:	82 e0       	ldi	r24, 0x02	; 2
    186a:	09 c0       	rjmp	.+18     	; 0x187e <Endpoint_Write_Control_Stream_LE+0xf8>
    186c:	83 e0       	ldi	r24, 0x03	; 3
    186e:	07 c0       	rjmp	.+14     	; 0x187e <Endpoint_Write_Control_Stream_LE+0xf8>
    1870:	81 e0       	ldi	r24, 0x01	; 1
    1872:	05 c0       	rjmp	.+10     	; 0x187e <Endpoint_Write_Control_Stream_LE+0xf8>
    1874:	82 e0       	ldi	r24, 0x02	; 2
    1876:	03 c0       	rjmp	.+6      	; 0x187e <Endpoint_Write_Control_Stream_LE+0xf8>
    1878:	83 e0       	ldi	r24, 0x03	; 3
    187a:	01 c0       	rjmp	.+2      	; 0x187e <Endpoint_Write_Control_Stream_LE+0xf8>
    187c:	81 e0       	ldi	r24, 0x01	; 1
    187e:	df 91       	pop	r29
    1880:	cf 91       	pop	r28
    1882:	1f 91       	pop	r17
    1884:	0f 91       	pop	r16
    1886:	ff 90       	pop	r15
    1888:	df 90       	pop	r13
    188a:	cf 90       	pop	r12
    188c:	08 95       	ret

0000188e <Endpoint_Write_Control_PStream_LE>:

#if defined(TEMPLATE_FUNC_NAME)

uint8_t TEMPLATE_FUNC_NAME (const void* const Buffer,
                            uint16_t Length)
{
    188e:	cf 92       	push	r12
    1890:	df 92       	push	r13
    1892:	ff 92       	push	r15
    1894:	0f 93       	push	r16
    1896:	1f 93       	push	r17
    1898:	cf 93       	push	r28
    189a:	df 93       	push	r29
	uint8_t* DataStream     = ((uint8_t*)Buffer + TEMPLATE_BUFFER_OFFSET(Length));
	bool     LastPacketFull = false;

	if (Length > USB_ControlRequest.wLength)
    189c:	20 91 48 02 	lds	r18, 0x0248	; 0x800248 <USB_ControlRequest+0x6>
    18a0:	30 91 49 02 	lds	r19, 0x0249	; 0x800249 <USB_ControlRequest+0x7>
    18a4:	26 17       	cp	r18, r22
    18a6:	37 07       	cpc	r19, r23
    18a8:	58 f0       	brcs	.+22     	; 0x18c0 <Endpoint_Write_Control_PStream_LE+0x32>
	  Length = USB_ControlRequest.wLength;
	else if (!(Length))
    18aa:	61 15       	cp	r22, r1
    18ac:	71 05       	cpc	r23, r1
    18ae:	39 f4       	brne	.+14     	; 0x18be <Endpoint_Write_Control_PStream_LE+0x30>
			 */
			static inline void Endpoint_ClearIN(void) ATTR_ALWAYS_INLINE;
			static inline void Endpoint_ClearIN(void)
			{
				#if !defined(CONTROL_ONLY_DEVICE)
					UEINTX &= ~((1 << TXINI) | (1 << FIFOCON));
    18b0:	e8 ee       	ldi	r30, 0xE8	; 232
    18b2:	f0 e0       	ldi	r31, 0x00	; 0
    18b4:	20 81       	ld	r18, Z
    18b6:	2e 77       	andi	r18, 0x7E	; 126
    18b8:	20 83       	st	Z, r18
    18ba:	9b 01       	movw	r18, r22
    18bc:	01 c0       	rjmp	.+2      	; 0x18c0 <Endpoint_Write_Control_PStream_LE+0x32>
    18be:	9b 01       	movw	r18, r22
    18c0:	e8 2f       	mov	r30, r24
    18c2:	f9 2f       	mov	r31, r25
    18c4:	10 e0       	ldi	r17, 0x00	; 0
			 *  \return Boolean \c true if the selected endpoint has received a SETUP packet, \c false otherwise.
			 */
			static inline bool Endpoint_IsSETUPReceived(void) ATTR_WARN_UNUSED_RESULT ATTR_ALWAYS_INLINE;
			static inline bool Endpoint_IsSETUPReceived(void)
			{
				return ((UEINTX & (1 << RXSTPI)) ? true : false);
    18c6:	a8 ee       	ldi	r26, 0xE8	; 232
    18c8:	b0 e0       	ldi	r27, 0x00	; 0
			static inline uint16_t Endpoint_BytesInEndpoint(void)
			{
				#if (defined(USB_SERIES_6_AVR) || defined(USB_SERIES_7_AVR))
					return UEBCX;
				#elif defined(USB_SERIES_4_AVR)
					return (((uint16_t)UEBCHX << 8) | UEBCLX);
    18ca:	63 ef       	ldi	r22, 0xF3	; 243
    18cc:	70 e0       	ldi	r23, 0x00	; 0
    18ce:	42 ef       	ldi	r20, 0xF2	; 242
    18d0:	50 e0       	ldi	r21, 0x00	; 0
			 *  \param[in] Data  Data to write into the the currently selected endpoint's FIFO buffer.
			 */
			static inline void Endpoint_Write_8(const uint8_t Data) ATTR_ALWAYS_INLINE;
			static inline void Endpoint_Write_8(const uint8_t Data)
			{
				UEDATX = Data;
    18d2:	0f 2e       	mov	r0, r31
    18d4:	f1 ef       	ldi	r31, 0xF1	; 241
    18d6:	cf 2e       	mov	r12, r31
    18d8:	d1 2c       	mov	r13, r1
    18da:	f0 2d       	mov	r31, r0
				TEMPLATE_BUFFER_MOVE(DataStream, 1);
				Length--;
				BytesInEndpoint++;
			}

			LastPacketFull = (BytesInEndpoint == USB_Device_ControlEndpointSize);
    18dc:	01 e0       	ldi	r16, 0x01	; 1
    18de:	f1 2c       	mov	r15, r1
    18e0:	31 c0       	rjmp	.+98     	; 0x1944 <Endpoint_Write_Control_PStream_LE+0xb6>
	else if (!(Length))
	  Endpoint_ClearIN();

	while (Length || LastPacketFull)
	{
		uint8_t USB_DeviceState_LCL = USB_DeviceState;
    18e2:	80 91 41 02 	lds	r24, 0x0241	; 0x800241 <USB_DeviceState>

		if (USB_DeviceState_LCL == DEVICE_STATE_Unattached)
    18e6:	88 23       	and	r24, r24
    18e8:	09 f4       	brne	.+2      	; 0x18ec <Endpoint_Write_Control_PStream_LE+0x5e>
    18ea:	43 c0       	rjmp	.+134    	; 0x1972 <Endpoint_Write_Control_PStream_LE+0xe4>
		  return ENDPOINT_RWCSTREAM_DeviceDisconnected;
		else if (USB_DeviceState_LCL == DEVICE_STATE_Suspended)
    18ec:	85 30       	cpi	r24, 0x05	; 5
    18ee:	09 f4       	brne	.+2      	; 0x18f2 <Endpoint_Write_Control_PStream_LE+0x64>
    18f0:	42 c0       	rjmp	.+132    	; 0x1976 <Endpoint_Write_Control_PStream_LE+0xe8>
			 *  \return Boolean \c true if the selected endpoint has received a SETUP packet, \c false otherwise.
			 */
			static inline bool Endpoint_IsSETUPReceived(void) ATTR_WARN_UNUSED_RESULT ATTR_ALWAYS_INLINE;
			static inline bool Endpoint_IsSETUPReceived(void)
			{
				return ((UEINTX & (1 << RXSTPI)) ? true : false);
    18f2:	8c 91       	ld	r24, X
		  return ENDPOINT_RWCSTREAM_BusSuspended;
		else if (Endpoint_IsSETUPReceived())
    18f4:	83 fd       	sbrc	r24, 3
    18f6:	41 c0       	rjmp	.+130    	; 0x197a <Endpoint_Write_Control_PStream_LE+0xec>
			 *  \return Boolean \c true if current endpoint is has received an OUT packet, \c false otherwise.
			 */
			static inline bool Endpoint_IsOUTReceived(void) ATTR_WARN_UNUSED_RESULT ATTR_ALWAYS_INLINE;
			static inline bool Endpoint_IsOUTReceived(void)
			{
				return ((UEINTX & (1 << RXOUTI)) ? true : false);
    18f8:	8c 91       	ld	r24, X
		  return ENDPOINT_RWCSTREAM_HostAborted;
		else if (Endpoint_IsOUTReceived())
    18fa:	82 fd       	sbrc	r24, 2
    18fc:	33 c0       	rjmp	.+102    	; 0x1964 <Endpoint_Write_Control_PStream_LE+0xd6>
			 *  \return Boolean \c true if the current endpoint is ready for an IN packet, \c false otherwise.
			 */
			static inline bool Endpoint_IsINReady(void) ATTR_WARN_UNUSED_RESULT ATTR_ALWAYS_INLINE;
			static inline bool Endpoint_IsINReady(void)
			{
				return ((UEINTX & (1 << TXINI)) ? true : false);
    18fe:	8c 91       	ld	r24, X
		  break;

		if (Endpoint_IsINReady())
    1900:	80 ff       	sbrs	r24, 0
    1902:	20 c0       	rjmp	.+64     	; 0x1944 <Endpoint_Write_Control_PStream_LE+0xb6>
			static inline uint16_t Endpoint_BytesInEndpoint(void)
			{
				#if (defined(USB_SERIES_6_AVR) || defined(USB_SERIES_7_AVR))
					return UEBCX;
				#elif defined(USB_SERIES_4_AVR)
					return (((uint16_t)UEBCHX << 8) | UEBCLX);
    1904:	eb 01       	movw	r28, r22
    1906:	18 81       	ld	r17, Y
    1908:	ea 01       	movw	r28, r20
    190a:	88 81       	ld	r24, Y
    190c:	90 e0       	ldi	r25, 0x00	; 0
    190e:	91 2b       	or	r25, r17
		{
			uint16_t BytesInEndpoint = Endpoint_BytesInEndpoint();

			while (Length && (BytesInEndpoint < USB_Device_ControlEndpointSize))
    1910:	21 15       	cp	r18, r1
    1912:	31 05       	cpc	r19, r1
    1914:	81 f0       	breq	.+32     	; 0x1936 <Endpoint_Write_Control_PStream_LE+0xa8>
    1916:	88 30       	cpi	r24, 0x08	; 8
    1918:	91 05       	cpc	r25, r1
    191a:	68 f4       	brcc	.+26     	; 0x1936 <Endpoint_Write_Control_PStream_LE+0xa8>
			{
				TEMPLATE_TRANSFER_BYTE(DataStream);
    191c:	14 91       	lpm	r17, Z
			 *  \param[in] Data  Data to write into the the currently selected endpoint's FIFO buffer.
			 */
			static inline void Endpoint_Write_8(const uint8_t Data) ATTR_ALWAYS_INLINE;
			static inline void Endpoint_Write_8(const uint8_t Data)
			{
				UEDATX = Data;
    191e:	e6 01       	movw	r28, r12
    1920:	18 83       	st	Y, r17
				TEMPLATE_BUFFER_MOVE(DataStream, 1);
    1922:	31 96       	adiw	r30, 0x01	; 1
				Length--;
    1924:	21 50       	subi	r18, 0x01	; 1
    1926:	31 09       	sbc	r19, r1
				BytesInEndpoint++;
    1928:	01 96       	adiw	r24, 0x01	; 1

		if (Endpoint_IsINReady())
		{
			uint16_t BytesInEndpoint = Endpoint_BytesInEndpoint();

			while (Length && (BytesInEndpoint < USB_Device_ControlEndpointSize))
    192a:	21 15       	cp	r18, r1
    192c:	31 05       	cpc	r19, r1
    192e:	19 f0       	breq	.+6      	; 0x1936 <Endpoint_Write_Control_PStream_LE+0xa8>
    1930:	88 30       	cpi	r24, 0x08	; 8
    1932:	91 05       	cpc	r25, r1
    1934:	99 f7       	brne	.-26     	; 0x191c <Endpoint_Write_Control_PStream_LE+0x8e>
				TEMPLATE_BUFFER_MOVE(DataStream, 1);
				Length--;
				BytesInEndpoint++;
			}

			LastPacketFull = (BytesInEndpoint == USB_Device_ControlEndpointSize);
    1936:	10 2f       	mov	r17, r16
    1938:	08 97       	sbiw	r24, 0x08	; 8
    193a:	09 f0       	breq	.+2      	; 0x193e <Endpoint_Write_Control_PStream_LE+0xb0>
    193c:	1f 2d       	mov	r17, r15
			 */
			static inline void Endpoint_ClearIN(void) ATTR_ALWAYS_INLINE;
			static inline void Endpoint_ClearIN(void)
			{
				#if !defined(CONTROL_ONLY_DEVICE)
					UEINTX &= ~((1 << TXINI) | (1 << FIFOCON));
    193e:	8c 91       	ld	r24, X
    1940:	8e 77       	andi	r24, 0x7E	; 126
    1942:	8c 93       	st	X, r24
	if (Length > USB_ControlRequest.wLength)
	  Length = USB_ControlRequest.wLength;
	else if (!(Length))
	  Endpoint_ClearIN();

	while (Length || LastPacketFull)
    1944:	21 15       	cp	r18, r1
    1946:	31 05       	cpc	r19, r1
    1948:	61 f6       	brne	.-104    	; 0x18e2 <Endpoint_Write_Control_PStream_LE+0x54>
    194a:	11 11       	cpse	r17, r1
    194c:	ca cf       	rjmp	.-108    	; 0x18e2 <Endpoint_Write_Control_PStream_LE+0x54>
    194e:	0a c0       	rjmp	.+20     	; 0x1964 <Endpoint_Write_Control_PStream_LE+0xd6>
		}
	}

	while (!(Endpoint_IsOUTReceived()))
	{
		uint8_t USB_DeviceState_LCL = USB_DeviceState;
    1950:	80 91 41 02 	lds	r24, 0x0241	; 0x800241 <USB_DeviceState>

		if (USB_DeviceState_LCL == DEVICE_STATE_Unattached)
    1954:	88 23       	and	r24, r24
    1956:	99 f0       	breq	.+38     	; 0x197e <Endpoint_Write_Control_PStream_LE+0xf0>
		  return ENDPOINT_RWCSTREAM_DeviceDisconnected;
		else if (USB_DeviceState_LCL == DEVICE_STATE_Suspended)
    1958:	85 30       	cpi	r24, 0x05	; 5
    195a:	99 f0       	breq	.+38     	; 0x1982 <Endpoint_Write_Control_PStream_LE+0xf4>
			 *  \return Boolean \c true if the selected endpoint has received a SETUP packet, \c false otherwise.
			 */
			static inline bool Endpoint_IsSETUPReceived(void) ATTR_WARN_UNUSED_RESULT ATTR_ALWAYS_INLINE;
			static inline bool Endpoint_IsSETUPReceived(void)
			{
				return ((UEINTX & (1 << RXSTPI)) ? true : false);
    195c:	80 81       	ld	r24, Z
		  return ENDPOINT_RWCSTREAM_BusSuspended;
		else if (Endpoint_IsSETUPReceived())
    195e:	83 ff       	sbrs	r24, 3
    1960:	03 c0       	rjmp	.+6      	; 0x1968 <Endpoint_Write_Control_PStream_LE+0xda>
    1962:	11 c0       	rjmp	.+34     	; 0x1986 <Endpoint_Write_Control_PStream_LE+0xf8>
			 *  \return Boolean \c true if current endpoint is has received an OUT packet, \c false otherwise.
			 */
			static inline bool Endpoint_IsOUTReceived(void) ATTR_WARN_UNUSED_RESULT ATTR_ALWAYS_INLINE;
			static inline bool Endpoint_IsOUTReceived(void)
			{
				return ((UEINTX & (1 << RXOUTI)) ? true : false);
    1964:	e8 ee       	ldi	r30, 0xE8	; 232
    1966:	f0 e0       	ldi	r31, 0x00	; 0
    1968:	80 81       	ld	r24, Z
			LastPacketFull = (BytesInEndpoint == USB_Device_ControlEndpointSize);
			Endpoint_ClearIN();
		}
	}

	while (!(Endpoint_IsOUTReceived()))
    196a:	82 ff       	sbrs	r24, 2
    196c:	f1 cf       	rjmp	.-30     	; 0x1950 <Endpoint_Write_Control_PStream_LE+0xc2>
		  return ENDPOINT_RWCSTREAM_BusSuspended;
		else if (Endpoint_IsSETUPReceived())
		  return ENDPOINT_RWCSTREAM_HostAborted;
	}

	return ENDPOINT_RWCSTREAM_NoError;
    196e:	80 e0       	ldi	r24, 0x00	; 0
    1970:	0b c0       	rjmp	.+22     	; 0x1988 <Endpoint_Write_Control_PStream_LE+0xfa>
	while (Length || LastPacketFull)
	{
		uint8_t USB_DeviceState_LCL = USB_DeviceState;

		if (USB_DeviceState_LCL == DEVICE_STATE_Unattached)
		  return ENDPOINT_RWCSTREAM_DeviceDisconnected;
    1972:	82 e0       	ldi	r24, 0x02	; 2
    1974:	09 c0       	rjmp	.+18     	; 0x1988 <Endpoint_Write_Control_PStream_LE+0xfa>
		else if (USB_DeviceState_LCL == DEVICE_STATE_Suspended)
		  return ENDPOINT_RWCSTREAM_BusSuspended;
    1976:	83 e0       	ldi	r24, 0x03	; 3
    1978:	07 c0       	rjmp	.+14     	; 0x1988 <Endpoint_Write_Control_PStream_LE+0xfa>
		else if (Endpoint_IsSETUPReceived())
		  return ENDPOINT_RWCSTREAM_HostAborted;
    197a:	81 e0       	ldi	r24, 0x01	; 1
    197c:	05 c0       	rjmp	.+10     	; 0x1988 <Endpoint_Write_Control_PStream_LE+0xfa>
	while (!(Endpoint_IsOUTReceived()))
	{
		uint8_t USB_DeviceState_LCL = USB_DeviceState;

		if (USB_DeviceState_LCL == DEVICE_STATE_Unattached)
		  return ENDPOINT_RWCSTREAM_DeviceDisconnected;
    197e:	82 e0       	ldi	r24, 0x02	; 2
    1980:	03 c0       	rjmp	.+6      	; 0x1988 <Endpoint_Write_Control_PStream_LE+0xfa>
		else if (USB_DeviceState_LCL == DEVICE_STATE_Suspended)
		  return ENDPOINT_RWCSTREAM_BusSuspended;
    1982:	83 e0       	ldi	r24, 0x03	; 3
    1984:	01 c0       	rjmp	.+2      	; 0x1988 <Endpoint_Write_Control_PStream_LE+0xfa>
		else if (Endpoint_IsSETUPReceived())
		  return ENDPOINT_RWCSTREAM_HostAborted;
    1986:	81 e0       	ldi	r24, 0x01	; 1
	}

	return ENDPOINT_RWCSTREAM_NoError;
}
    1988:	df 91       	pop	r29
    198a:	cf 91       	pop	r28
    198c:	1f 91       	pop	r17
    198e:	0f 91       	pop	r16
    1990:	ff 90       	pop	r15
    1992:	df 90       	pop	r13
    1994:	cf 90       	pop	r12
    1996:	08 95       	ret

00001998 <Endpoint_ConfigureEndpoint_Prv>:
		UEIENX  = 0;
		UEINTX  = 0;
		UECFG1X = 0;
		Endpoint_DisableEndpoint();
	}
}
    1998:	8f 92       	push	r8
    199a:	9f 92       	push	r9
    199c:	bf 92       	push	r11
    199e:	cf 92       	push	r12
    19a0:	df 92       	push	r13
    19a2:	ef 92       	push	r14
    19a4:	ff 92       	push	r15
    19a6:	0f 93       	push	r16
    19a8:	1f 93       	push	r17
    19aa:	cf 93       	push	r28
    19ac:	df 93       	push	r29
    19ae:	87 30       	cpi	r24, 0x07	; 7
    19b0:	70 f1       	brcs	.+92     	; 0x1a0e <Endpoint_ConfigureEndpoint_Prv+0x76>
    19b2:	26 c0       	rjmp	.+76     	; 0x1a00 <Endpoint_ConfigureEndpoint_Prv+0x68>
    19b4:	29 2f       	mov	r18, r25
    19b6:	2f 70       	andi	r18, 0x0F	; 15
    19b8:	e7 01       	movw	r28, r14
    19ba:	28 83       	st	Y, r18
    19bc:	89 17       	cp	r24, r25
    19be:	31 f0       	breq	.+12     	; 0x19cc <Endpoint_ConfigureEndpoint_Prv+0x34>
    19c0:	e8 01       	movw	r28, r16
    19c2:	78 81       	ld	r23, Y
    19c4:	20 81       	ld	r18, Z
    19c6:	e4 01       	movw	r28, r8
    19c8:	58 81       	ld	r21, Y
    19ca:	03 c0       	rjmp	.+6      	; 0x19d2 <Endpoint_ConfigureEndpoint_Prv+0x3a>
    19cc:	24 2f       	mov	r18, r20
    19ce:	76 2f       	mov	r23, r22
    19d0:	5b 2d       	mov	r21, r11
    19d2:	21 ff       	sbrs	r18, 1
    19d4:	12 c0       	rjmp	.+36     	; 0x19fa <Endpoint_ConfigureEndpoint_Prv+0x62>
    19d6:	3c 91       	ld	r19, X
    19d8:	3e 7f       	andi	r19, 0xFE	; 254
    19da:	3c 93       	st	X, r19
    19dc:	30 81       	ld	r19, Z
    19de:	3d 7f       	andi	r19, 0xFD	; 253
    19e0:	30 83       	st	Z, r19
    19e2:	3c 91       	ld	r19, X
    19e4:	31 60       	ori	r19, 0x01	; 1
    19e6:	3c 93       	st	X, r19
    19e8:	e8 01       	movw	r28, r16
    19ea:	78 83       	st	Y, r23
    19ec:	20 83       	st	Z, r18
    19ee:	e4 01       	movw	r28, r8
    19f0:	58 83       	st	Y, r21
    19f2:	e6 01       	movw	r28, r12
    19f4:	28 81       	ld	r18, Y
    19f6:	22 23       	and	r18, r18
    19f8:	44 f4       	brge	.+16     	; 0x1a0a <Endpoint_ConfigureEndpoint_Prv+0x72>
    19fa:	9f 5f       	subi	r25, 0xFF	; 255
    19fc:	97 30       	cpi	r25, 0x07	; 7
    19fe:	d1 f6       	brne	.-76     	; 0x19b4 <Endpoint_ConfigureEndpoint_Prv+0x1c>
    1a00:	8f 70       	andi	r24, 0x0F	; 15
    1a02:	80 93 e9 00 	sts	0x00E9, r24	; 0x8000e9 <__TEXT_REGION_LENGTH__+0x7f80e9>
    1a06:	81 e0       	ldi	r24, 0x01	; 1
    1a08:	21 c0       	rjmp	.+66     	; 0x1a4c <Endpoint_ConfigureEndpoint_Prv+0xb4>
    1a0a:	80 e0       	ldi	r24, 0x00	; 0
    1a0c:	1f c0       	rjmp	.+62     	; 0x1a4c <Endpoint_ConfigureEndpoint_Prv+0xb4>
    1a0e:	98 2f       	mov	r25, r24
    1a10:	9f 70       	andi	r25, 0x0F	; 15
    1a12:	90 93 e9 00 	sts	0x00E9, r25	; 0x8000e9 <__TEXT_REGION_LENGTH__+0x7f80e9>
    1a16:	98 2f       	mov	r25, r24
    1a18:	24 2f       	mov	r18, r20
    1a1a:	76 2f       	mov	r23, r22
    1a1c:	50 e0       	ldi	r21, 0x00	; 0
    1a1e:	ab ee       	ldi	r26, 0xEB	; 235
    1a20:	b0 e0       	ldi	r27, 0x00	; 0
    1a22:	ed ee       	ldi	r30, 0xED	; 237
    1a24:	f0 e0       	ldi	r31, 0x00	; 0
    1a26:	0c ee       	ldi	r16, 0xEC	; 236
    1a28:	10 e0       	ldi	r17, 0x00	; 0
    1a2a:	0f 2e       	mov	r0, r31
    1a2c:	f0 ef       	ldi	r31, 0xF0	; 240
    1a2e:	8f 2e       	mov	r8, r31
    1a30:	91 2c       	mov	r9, r1
    1a32:	f0 2d       	mov	r31, r0
    1a34:	0f 2e       	mov	r0, r31
    1a36:	fe ee       	ldi	r31, 0xEE	; 238
    1a38:	cf 2e       	mov	r12, r31
    1a3a:	d1 2c       	mov	r13, r1
    1a3c:	f0 2d       	mov	r31, r0
    1a3e:	0f 2e       	mov	r0, r31
    1a40:	f9 ee       	ldi	r31, 0xE9	; 233
    1a42:	ef 2e       	mov	r14, r31
    1a44:	f1 2c       	mov	r15, r1
    1a46:	f0 2d       	mov	r31, r0
    1a48:	b1 2c       	mov	r11, r1
    1a4a:	c3 cf       	rjmp	.-122    	; 0x19d2 <Endpoint_ConfigureEndpoint_Prv+0x3a>
    1a4c:	df 91       	pop	r29
    1a4e:	cf 91       	pop	r28
    1a50:	1f 91       	pop	r17
    1a52:	0f 91       	pop	r16
    1a54:	ff 90       	pop	r15
    1a56:	ef 90       	pop	r14
    1a58:	df 90       	pop	r13
    1a5a:	cf 90       	pop	r12
    1a5c:	bf 90       	pop	r11
    1a5e:	9f 90       	pop	r9
    1a60:	8f 90       	pop	r8
    1a62:	08 95       	ret

00001a64 <Endpoint_ConfigureEndpointTable>:
    1a64:	ef 92       	push	r14
    1a66:	ff 92       	push	r15
    1a68:	0f 93       	push	r16
    1a6a:	1f 93       	push	r17
    1a6c:	cf 93       	push	r28
    1a6e:	df 93       	push	r29
    1a70:	66 23       	and	r22, r22
    1a72:	e9 f1       	breq	.+122    	; 0x1aee <Endpoint_ConfigureEndpointTable+0x8a>
    1a74:	06 2f       	mov	r16, r22
    1a76:	c8 2f       	mov	r28, r24
    1a78:	d9 2f       	mov	r29, r25
    1a7a:	10 e0       	ldi	r17, 0x00	; 0
    1a7c:	0f 2e       	mov	r0, r31
    1a7e:	f6 e0       	ldi	r31, 0x06	; 6
    1a80:	ff 2e       	mov	r15, r31
    1a82:	f0 2d       	mov	r31, r0
    1a84:	68 94       	set
    1a86:	ee 24       	eor	r14, r14
    1a88:	e1 f8       	bld	r14, 1
    1a8a:	58 81       	ld	r21, Y
    1a8c:	55 23       	and	r21, r21
    1a8e:	49 f1       	breq	.+82     	; 0x1ae2 <Endpoint_ConfigureEndpointTable+0x7e>
    1a90:	9c 81       	ldd	r25, Y+4	; 0x04
    1a92:	e9 81       	ldd	r30, Y+1	; 0x01
    1a94:	fa 81       	ldd	r31, Y+2	; 0x02
    1a96:	6b 81       	ldd	r22, Y+3	; 0x03
    1a98:	85 2f       	mov	r24, r21
    1a9a:	8f 70       	andi	r24, 0x0F	; 15
    1a9c:	87 30       	cpi	r24, 0x07	; 7
    1a9e:	48 f5       	brcc	.+82     	; 0x1af2 <Endpoint_ConfigureEndpointTable+0x8e>
    1aa0:	92 30       	cpi	r25, 0x02	; 2
    1aa2:	10 f4       	brcc	.+4      	; 0x1aa8 <Endpoint_ConfigureEndpointTable+0x44>
    1aa4:	4e 2d       	mov	r20, r14
    1aa6:	01 c0       	rjmp	.+2      	; 0x1aaa <Endpoint_ConfigureEndpointTable+0x46>
    1aa8:	4f 2d       	mov	r20, r15
    1aaa:	e9 30       	cpi	r30, 0x09	; 9
    1aac:	f1 05       	cpc	r31, r1
    1aae:	50 f0       	brcs	.+20     	; 0x1ac4 <Endpoint_ConfigureEndpointTable+0x60>
    1ab0:	28 e0       	ldi	r18, 0x08	; 8
    1ab2:	30 e0       	ldi	r19, 0x00	; 0
    1ab4:	90 e0       	ldi	r25, 0x00	; 0
    1ab6:	9f 5f       	subi	r25, 0xFF	; 255
    1ab8:	22 0f       	add	r18, r18
    1aba:	33 1f       	adc	r19, r19
    1abc:	2e 17       	cp	r18, r30
    1abe:	3f 07       	cpc	r19, r31
    1ac0:	d0 f3       	brcs	.-12     	; 0x1ab6 <Endpoint_ConfigureEndpointTable+0x52>
    1ac2:	01 c0       	rjmp	.+2      	; 0x1ac6 <Endpoint_ConfigureEndpointTable+0x62>
    1ac4:	90 e0       	ldi	r25, 0x00	; 0
    1ac6:	92 95       	swap	r25
    1ac8:	90 7f       	andi	r25, 0xF0	; 240
    1aca:	49 2b       	or	r20, r25
    1acc:	90 e4       	ldi	r25, 0x40	; 64
    1ace:	69 9f       	mul	r22, r25
    1ad0:	b0 01       	movw	r22, r0
    1ad2:	11 24       	eor	r1, r1
    1ad4:	55 1f       	adc	r21, r21
    1ad6:	55 27       	eor	r21, r21
    1ad8:	55 1f       	adc	r21, r21
    1ada:	65 2b       	or	r22, r21
    1adc:	5d df       	rcall	.-326    	; 0x1998 <Endpoint_ConfigureEndpoint_Prv>
    1ade:	88 23       	and	r24, r24
    1ae0:	49 f0       	breq	.+18     	; 0x1af4 <Endpoint_ConfigureEndpointTable+0x90>
    1ae2:	1f 5f       	subi	r17, 0xFF	; 255
    1ae4:	25 96       	adiw	r28, 0x05	; 5
    1ae6:	01 13       	cpse	r16, r17
    1ae8:	d0 cf       	rjmp	.-96     	; 0x1a8a <Endpoint_ConfigureEndpointTable+0x26>
    1aea:	81 e0       	ldi	r24, 0x01	; 1
    1aec:	03 c0       	rjmp	.+6      	; 0x1af4 <Endpoint_ConfigureEndpointTable+0x90>
    1aee:	81 e0       	ldi	r24, 0x01	; 1
    1af0:	01 c0       	rjmp	.+2      	; 0x1af4 <Endpoint_ConfigureEndpointTable+0x90>
    1af2:	80 e0       	ldi	r24, 0x00	; 0
    1af4:	df 91       	pop	r29
    1af6:	cf 91       	pop	r28
    1af8:	1f 91       	pop	r17
    1afa:	0f 91       	pop	r16
    1afc:	ff 90       	pop	r15
    1afe:	ef 90       	pop	r14
    1b00:	08 95       	ret

00001b02 <Endpoint_ClearStatusStage>:

void Endpoint_ClearStatusStage(void)
{
	if (USB_ControlRequest.bmRequestType & REQDIR_DEVICETOHOST)
    1b02:	80 91 42 02 	lds	r24, 0x0242	; 0x800242 <USB_ControlRequest>
    1b06:	88 23       	and	r24, r24
    1b08:	44 f0       	brlt	.+16     	; 0x1b1a <Endpoint_ClearStatusStage+0x18>
			 *  \return Boolean \c true if the current endpoint is ready for an IN packet, \c false otherwise.
			 */
			static inline bool Endpoint_IsINReady(void) ATTR_WARN_UNUSED_RESULT ATTR_ALWAYS_INLINE;
			static inline bool Endpoint_IsINReady(void)
			{
				return ((UEINTX & (1 << TXINI)) ? true : false);
    1b0a:	e8 ee       	ldi	r30, 0xE8	; 232
    1b0c:	f0 e0       	ldi	r31, 0x00	; 0
    1b0e:	14 c0       	rjmp	.+40     	; 0x1b38 <Endpoint_ClearStatusStage+0x36>
	{
		while (!(Endpoint_IsOUTReceived()))
		{
			if (USB_DeviceState == DEVICE_STATE_Unattached)
    1b10:	80 91 41 02 	lds	r24, 0x0241	; 0x800241 <USB_DeviceState>
    1b14:	81 11       	cpse	r24, r1
    1b16:	03 c0       	rjmp	.+6      	; 0x1b1e <Endpoint_ClearStatusStage+0x1c>
    1b18:	08 95       	ret
			 *  \return Boolean \c true if current endpoint is has received an OUT packet, \c false otherwise.
			 */
			static inline bool Endpoint_IsOUTReceived(void) ATTR_WARN_UNUSED_RESULT ATTR_ALWAYS_INLINE;
			static inline bool Endpoint_IsOUTReceived(void)
			{
				return ((UEINTX & (1 << RXOUTI)) ? true : false);
    1b1a:	e8 ee       	ldi	r30, 0xE8	; 232
    1b1c:	f0 e0       	ldi	r31, 0x00	; 0
    1b1e:	80 81       	ld	r24, Z

void Endpoint_ClearStatusStage(void)
{
	if (USB_ControlRequest.bmRequestType & REQDIR_DEVICETOHOST)
	{
		while (!(Endpoint_IsOUTReceived()))
    1b20:	82 ff       	sbrs	r24, 2
    1b22:	f6 cf       	rjmp	.-20     	; 0x1b10 <Endpoint_ClearStatusStage+0xe>
			 */
			static inline void Endpoint_ClearOUT(void) ATTR_ALWAYS_INLINE;
			static inline void Endpoint_ClearOUT(void)
			{
				#if !defined(CONTROL_ONLY_DEVICE)
					UEINTX &= ~((1 << RXOUTI) | (1 << FIFOCON));
    1b24:	e8 ee       	ldi	r30, 0xE8	; 232
    1b26:	f0 e0       	ldi	r31, 0x00	; 0
    1b28:	80 81       	ld	r24, Z
    1b2a:	8b 77       	andi	r24, 0x7B	; 123
    1b2c:	80 83       	st	Z, r24
    1b2e:	08 95       	ret
	}
	else
	{
		while (!(Endpoint_IsINReady()))
		{
			if (USB_DeviceState == DEVICE_STATE_Unattached)
    1b30:	80 91 41 02 	lds	r24, 0x0241	; 0x800241 <USB_DeviceState>
    1b34:	88 23       	and	r24, r24
    1b36:	41 f0       	breq	.+16     	; 0x1b48 <Endpoint_ClearStatusStage+0x46>
			 *  \return Boolean \c true if the current endpoint is ready for an IN packet, \c false otherwise.
			 */
			static inline bool Endpoint_IsINReady(void) ATTR_WARN_UNUSED_RESULT ATTR_ALWAYS_INLINE;
			static inline bool Endpoint_IsINReady(void)
			{
				return ((UEINTX & (1 << TXINI)) ? true : false);
    1b38:	80 81       	ld	r24, Z

		Endpoint_ClearOUT();
	}
	else
	{
		while (!(Endpoint_IsINReady()))
    1b3a:	80 ff       	sbrs	r24, 0
    1b3c:	f9 cf       	rjmp	.-14     	; 0x1b30 <Endpoint_ClearStatusStage+0x2e>
			 */
			static inline void Endpoint_ClearIN(void) ATTR_ALWAYS_INLINE;
			static inline void Endpoint_ClearIN(void)
			{
				#if !defined(CONTROL_ONLY_DEVICE)
					UEINTX &= ~((1 << TXINI) | (1 << FIFOCON));
    1b3e:	e8 ee       	ldi	r30, 0xE8	; 232
    1b40:	f0 e0       	ldi	r31, 0x00	; 0
    1b42:	80 81       	ld	r24, Z
    1b44:	8e 77       	andi	r24, 0x7E	; 126
    1b46:	80 83       	st	Z, r24
    1b48:	08 95       	ret

00001b4a <Endpoint_WaitUntilReady>:
	}
}

#if !defined(CONTROL_ONLY_DEVICE)
uint8_t Endpoint_WaitUntilReady(void)
{
    1b4a:	0f 93       	push	r16
    1b4c:	1f 93       	push	r17
    1b4e:	cf 93       	push	r28
    1b50:	df 93       	push	r29
			 *  \return Current USB frame number from the USB controller.
			 */
			static inline uint16_t USB_Device_GetFrameNumber(void) ATTR_ALWAYS_INLINE ATTR_WARN_UNUSED_RESULT;
			static inline uint16_t USB_Device_GetFrameNumber(void)
			{
				return UDFNUM;
    1b52:	20 91 e4 00 	lds	r18, 0x00E4	; 0x8000e4 <__TEXT_REGION_LENGTH__+0x7f80e4>
    1b56:	30 91 e5 00 	lds	r19, 0x00E5	; 0x8000e5 <__TEXT_REGION_LENGTH__+0x7f80e5>
    1b5a:	65 e6       	ldi	r22, 0x65	; 101
			 *  \return The currently selected endpoint's direction, as a \c ENDPOINT_DIR_* mask.
			 */
			static inline uint8_t Endpoint_GetEndpointDirection(void) ATTR_WARN_UNUSED_RESULT ATTR_ALWAYS_INLINE;
			static inline uint8_t Endpoint_GetEndpointDirection(void)
			{
				return (UECFG0X & (1 << EPDIR)) ? ENDPOINT_DIR_IN : ENDPOINT_DIR_OUT;
    1b5c:	ac ee       	ldi	r26, 0xEC	; 236
    1b5e:	b0 e0       	ldi	r27, 0x00	; 0
			 *  \return Boolean \c true if current endpoint is has received an OUT packet, \c false otherwise.
			 */
			static inline bool Endpoint_IsOUTReceived(void) ATTR_WARN_UNUSED_RESULT ATTR_ALWAYS_INLINE;
			static inline bool Endpoint_IsOUTReceived(void)
			{
				return ((UEINTX & (1 << RXOUTI)) ? true : false);
    1b60:	e8 ee       	ldi	r30, 0xE8	; 232
    1b62:	f0 e0       	ldi	r31, 0x00	; 0
			 *  \return Boolean \c true if the currently selected endpoint is stalled, \c false otherwise.
			 */
			static inline bool Endpoint_IsStalled(void) ATTR_WARN_UNUSED_RESULT ATTR_ALWAYS_INLINE;
			static inline bool Endpoint_IsStalled(void)
			{
				return ((UECONX & (1 << STALLRQ)) ? true : false);
    1b64:	0b ee       	ldi	r16, 0xEB	; 235
    1b66:	10 e0       	ldi	r17, 0x00	; 0
    1b68:	44 ee       	ldi	r20, 0xE4	; 228
    1b6a:	50 e0       	ldi	r21, 0x00	; 0
    1b6c:	01 c0       	rjmp	.+2      	; 0x1b70 <Endpoint_WaitUntilReady+0x26>
    1b6e:	9c 01       	movw	r18, r24
			 *  \return The currently selected endpoint's direction, as a \c ENDPOINT_DIR_* mask.
			 */
			static inline uint8_t Endpoint_GetEndpointDirection(void) ATTR_WARN_UNUSED_RESULT ATTR_ALWAYS_INLINE;
			static inline uint8_t Endpoint_GetEndpointDirection(void)
			{
				return (UECFG0X & (1 << EPDIR)) ? ENDPOINT_DIR_IN : ENDPOINT_DIR_OUT;
    1b70:	9c 91       	ld	r25, X
    1b72:	89 2f       	mov	r24, r25
    1b74:	81 70       	andi	r24, 0x01	; 1
    1b76:	90 fd       	sbrc	r25, 0
    1b78:	1d c0       	rjmp	.+58     	; 0x1bb4 <Endpoint_WaitUntilReady+0x6a>
    1b7a:	20 c0       	rjmp	.+64     	; 0x1bbc <Endpoint_WaitUntilReady+0x72>
		{
			if (Endpoint_IsOUTReceived())
			  return ENDPOINT_READYWAIT_NoError;
		}

		uint8_t USB_DeviceState_LCL = USB_DeviceState;
    1b7c:	80 91 41 02 	lds	r24, 0x0241	; 0x800241 <USB_DeviceState>

		if (USB_DeviceState_LCL == DEVICE_STATE_Unattached)
    1b80:	88 23       	and	r24, r24
    1b82:	81 f0       	breq	.+32     	; 0x1ba4 <Endpoint_WaitUntilReady+0x5a>
		  return ENDPOINT_READYWAIT_DeviceDisconnected;
		else if (USB_DeviceState_LCL == DEVICE_STATE_Suspended)
    1b84:	85 30       	cpi	r24, 0x05	; 5
    1b86:	81 f0       	breq	.+32     	; 0x1ba8 <Endpoint_WaitUntilReady+0x5e>
			 *  \return Boolean \c true if the currently selected endpoint is stalled, \c false otherwise.
			 */
			static inline bool Endpoint_IsStalled(void) ATTR_WARN_UNUSED_RESULT ATTR_ALWAYS_INLINE;
			static inline bool Endpoint_IsStalled(void)
			{
				return ((UECONX & (1 << STALLRQ)) ? true : false);
    1b88:	e8 01       	movw	r28, r16
    1b8a:	88 81       	ld	r24, Y
		  return ENDPOINT_READYWAIT_BusSuspended;
		else if (Endpoint_IsStalled())
    1b8c:	85 fd       	sbrc	r24, 5
    1b8e:	0e c0       	rjmp	.+28     	; 0x1bac <Endpoint_WaitUntilReady+0x62>
    1b90:	ea 01       	movw	r28, r20
    1b92:	88 81       	ld	r24, Y
    1b94:	99 81       	ldd	r25, Y+1	; 0x01
		  return ENDPOINT_READYWAIT_EndpointStalled;

		uint16_t CurrentFrameNumber = USB_Device_GetFrameNumber();

		if (CurrentFrameNumber != PreviousFrameNumber)
    1b96:	28 17       	cp	r18, r24
    1b98:	39 07       	cpc	r19, r25
    1b9a:	51 f3       	breq	.-44     	; 0x1b70 <Endpoint_WaitUntilReady+0x26>
    1b9c:	61 50       	subi	r22, 0x01	; 1
		{
			PreviousFrameNumber = CurrentFrameNumber;

			if (!(TimeoutMSRem--))
    1b9e:	39 f7       	brne	.-50     	; 0x1b6e <Endpoint_WaitUntilReady+0x24>
			  return ENDPOINT_READYWAIT_Timeout;
    1ba0:	84 e0       	ldi	r24, 0x04	; 4
    1ba2:	0f c0       	rjmp	.+30     	; 0x1bc2 <Endpoint_WaitUntilReady+0x78>
		}

		uint8_t USB_DeviceState_LCL = USB_DeviceState;

		if (USB_DeviceState_LCL == DEVICE_STATE_Unattached)
		  return ENDPOINT_READYWAIT_DeviceDisconnected;
    1ba4:	82 e0       	ldi	r24, 0x02	; 2
    1ba6:	0d c0       	rjmp	.+26     	; 0x1bc2 <Endpoint_WaitUntilReady+0x78>
		else if (USB_DeviceState_LCL == DEVICE_STATE_Suspended)
		  return ENDPOINT_READYWAIT_BusSuspended;
    1ba8:	83 e0       	ldi	r24, 0x03	; 3
    1baa:	0b c0       	rjmp	.+22     	; 0x1bc2 <Endpoint_WaitUntilReady+0x78>
		else if (Endpoint_IsStalled())
		  return ENDPOINT_READYWAIT_EndpointStalled;
    1bac:	81 e0       	ldi	r24, 0x01	; 1
    1bae:	09 c0       	rjmp	.+18     	; 0x1bc2 <Endpoint_WaitUntilReady+0x78>
	for (;;)
	{
		if (Endpoint_GetEndpointDirection() == ENDPOINT_DIR_IN)
		{
			if (Endpoint_IsINReady())
			  return ENDPOINT_READYWAIT_NoError;
    1bb0:	80 e0       	ldi	r24, 0x00	; 0
    1bb2:	07 c0       	rjmp	.+14     	; 0x1bc2 <Endpoint_WaitUntilReady+0x78>
			 *  \return Boolean \c true if the current endpoint is ready for an IN packet, \c false otherwise.
			 */
			static inline bool Endpoint_IsINReady(void) ATTR_WARN_UNUSED_RESULT ATTR_ALWAYS_INLINE;
			static inline bool Endpoint_IsINReady(void)
			{
				return ((UEINTX & (1 << TXINI)) ? true : false);
    1bb4:	80 81       	ld	r24, Z

	for (;;)
	{
		if (Endpoint_GetEndpointDirection() == ENDPOINT_DIR_IN)
		{
			if (Endpoint_IsINReady())
    1bb6:	80 ff       	sbrs	r24, 0
    1bb8:	e1 cf       	rjmp	.-62     	; 0x1b7c <Endpoint_WaitUntilReady+0x32>
    1bba:	fa cf       	rjmp	.-12     	; 0x1bb0 <Endpoint_WaitUntilReady+0x66>
			 *  \return Boolean \c true if current endpoint is has received an OUT packet, \c false otherwise.
			 */
			static inline bool Endpoint_IsOUTReceived(void) ATTR_WARN_UNUSED_RESULT ATTR_ALWAYS_INLINE;
			static inline bool Endpoint_IsOUTReceived(void)
			{
				return ((UEINTX & (1 << RXOUTI)) ? true : false);
    1bbc:	90 81       	ld	r25, Z
			  return ENDPOINT_READYWAIT_NoError;
		}
		else
		{
			if (Endpoint_IsOUTReceived())
    1bbe:	92 ff       	sbrs	r25, 2
    1bc0:	dd cf       	rjmp	.-70     	; 0x1b7c <Endpoint_WaitUntilReady+0x32>

			if (!(TimeoutMSRem--))
			  return ENDPOINT_READYWAIT_Timeout;
		}
	}
}
    1bc2:	df 91       	pop	r29
    1bc4:	cf 91       	pop	r28
    1bc6:	1f 91       	pop	r17
    1bc8:	0f 91       	pop	r16
    1bca:	08 95       	ret

00001bcc <USB_ResetInterface>:

	USB_IsInitialized = false;
}

void USB_ResetInterface(void)
{
    1bcc:	0f 93       	push	r16
    1bce:	1f 93       	push	r17
    1bd0:	cf 93       	push	r28
    1bd2:	df 93       	push	r29
	#if defined(USB_CAN_BE_BOTH)
	bool UIDModeSelectEnabled = ((UHWCON & (1 << UIDE)) != 0);
	#endif

	USB_INT_DisableAllInterrupts();
    1bd4:	4c d0       	rcall	.+152    	; 0x1c6e <USB_INT_DisableAllInterrupts>
	USB_INT_ClearAllInterrupts();
    1bd6:	53 d0       	rcall	.+166    	; 0x1c7e <USB_INT_ClearAllInterrupts>
    1bd8:	c8 ed       	ldi	r28, 0xD8	; 216
			}

			static inline void USB_Controller_Reset(void) ATTR_ALWAYS_INLINE;
			static inline void USB_Controller_Reset(void)
			{
				USBCON &= ~(1 << USBE);
    1bda:	d0 e0       	ldi	r29, 0x00	; 0
    1bdc:	88 81       	ld	r24, Y
    1bde:	8f 77       	andi	r24, 0x7F	; 127
    1be0:	88 83       	st	Y, r24
    1be2:	88 81       	ld	r24, Y
				USBCON |=  (1 << USBE);
    1be4:	80 68       	ori	r24, 0x80	; 128
    1be6:	88 83       	st	Y, r24
    1be8:	88 81       	ld	r24, Y
			}

			static inline void USB_CLK_Unfreeze(void) ATTR_ALWAYS_INLINE;
			static inline void USB_CLK_Unfreeze(void)
			{
				USBCON &= ~(1 << FRZCLK);
    1bea:	8f 7d       	andi	r24, 0xDF	; 223
    1bec:	88 83       	st	Y, r24
    1bee:	19 bc       	out	0x29, r1	; 41
			}

			static inline void USB_PLL_Off(void) ATTR_ALWAYS_INLINE;
			static inline void USB_PLL_Off(void)
			{
				PLLCSR = 0;
    1bf0:	10 92 41 02 	sts	0x0241, r1	; 0x800241 <USB_DeviceState>
}

#if defined(USB_CAN_BE_DEVICE)
static void USB_Init_Device(void)
{
	USB_DeviceState                 = DEVICE_STATE_Unattached;
    1bf4:	10 92 3d 02 	sts	0x023D, r1	; 0x80023d <USB_Device_ConfigurationNumber>
	USB_Device_ConfigurationNumber  = 0;
    1bf8:	10 92 3f 02 	sts	0x023F, r1	; 0x80023f <USB_Device_RemoteWakeupEnabled>

	#if !defined(NO_DEVICE_REMOTE_WAKEUP)
	USB_Device_RemoteWakeupEnabled  = false;
    1bfc:	10 92 3e 02 	sts	0x023E, r1	; 0x80023e <USB_Device_CurrentlySelfPowered>
	#endif

	#if !defined(NO_DEVICE_SELF_POWER)
	USB_Device_CurrentlySelfPowered = false;
    1c00:	00 ee       	ldi	r16, 0xE0	; 224
			}

			static inline void USB_Device_SetFullSpeed(void) ATTR_ALWAYS_INLINE;
			static inline void USB_Device_SetFullSpeed(void)
			{
				UDCON &= ~(1 << LSM);
    1c02:	10 e0       	ldi	r17, 0x00	; 0
    1c04:	f8 01       	movw	r30, r16
    1c06:	80 81       	ld	r24, Z
    1c08:	8b 7f       	andi	r24, 0xFB	; 251
    1c0a:	80 83       	st	Z, r24
    1c0c:	88 81       	ld	r24, Y
			{
				switch (Interrupt)
				{
					#if (defined(USB_SERIES_4_AVR) || defined(USB_SERIES_6_AVR) || defined(USB_SERIES_7_AVR))
					case USB_INT_VBUSTI:
						USBCON |= (1 << VBUSTE);
    1c0e:	81 60       	ori	r24, 0x01	; 1
    1c10:	88 83       	st	Y, r24
    1c12:	42 e0       	ldi	r20, 0x02	; 2
				uint8_t Number = (Address & ENDPOINT_EPNUM_MASK);

				if (Number >= ENDPOINT_TOTAL_ENDPOINTS)
				  return false;

				return Endpoint_ConfigureEndpoint_Prv(Number,
    1c14:	60 e0       	ldi	r22, 0x00	; 0
    1c16:	80 e0       	ldi	r24, 0x00	; 0
    1c18:	bf de       	rcall	.-642    	; 0x1998 <Endpoint_ConfigureEndpoint_Prv>
    1c1a:	e1 ee       	ldi	r30, 0xE1	; 225
					#if defined(USB_CAN_BE_DEVICE)
					case USB_INT_WAKEUPI:
						UDINT  &= ~(1 << WAKEUPI);
						break;
					case USB_INT_SUSPI:
						UDINT  &= ~(1 << SUSPI);
    1c1c:	f0 e0       	ldi	r31, 0x00	; 0
    1c1e:	80 81       	ld	r24, Z
    1c20:	8e 7f       	andi	r24, 0xFE	; 254
    1c22:	80 83       	st	Z, r24
    1c24:	e2 ee       	ldi	r30, 0xE2	; 226
					#if defined(USB_CAN_BE_DEVICE)
					case USB_INT_WAKEUPI:
						UDIEN  |= (1 << WAKEUPE);
						break;
					case USB_INT_SUSPI:
						UDIEN  |= (1 << SUSPE);
    1c26:	f0 e0       	ldi	r31, 0x00	; 0
    1c28:	80 81       	ld	r24, Z
    1c2a:	81 60       	ori	r24, 0x01	; 1
    1c2c:	80 83       	st	Z, r24
    1c2e:	80 81       	ld	r24, Z
						break;
					case USB_INT_EORSTI:
						UDIEN  |= (1 << EORSTE);
    1c30:	88 60       	ori	r24, 0x08	; 8
    1c32:	80 83       	st	Z, r24
    1c34:	f8 01       	movw	r30, r16
			 *  register and despite the datasheet making no mention of its requirement in host mode.
			 */
			static inline void USB_Attach(void) ATTR_ALWAYS_INLINE;
			static inline void USB_Attach(void)
			{
				UDCON  &= ~(1 << DETACH);
    1c36:	80 81       	ld	r24, Z
    1c38:	8e 7f       	andi	r24, 0xFE	; 254
    1c3a:	80 83       	st	Z, r24
    1c3c:	88 81       	ld	r24, Y

			#if defined(USB_SERIES_4_AVR) || defined(USB_SERIES_6_AVR) || defined(USB_SERIES_7_AVR)
			static inline void USB_OTGPAD_On(void) ATTR_ALWAYS_INLINE;
			static inline void USB_OTGPAD_On(void)
			{
				USBCON |=  (1 << OTGPADE);
    1c3e:	80 61       	ori	r24, 0x10	; 16
    1c40:	88 83       	st	Y, r24
    1c42:	df 91       	pop	r29
	}

	#if (defined(USB_SERIES_4_AVR) || defined(USB_SERIES_6_AVR) || defined(USB_SERIES_7_AVR))
	USB_OTGPAD_On();
	#endif
}
    1c44:	cf 91       	pop	r28
    1c46:	1f 91       	pop	r17
    1c48:	0f 91       	pop	r16
    1c4a:	08 95       	ret

00001c4c <USB_Init>:
    1c4c:	e8 ed       	ldi	r30, 0xD8	; 216
			}

			static inline void USB_OTGPAD_Off(void) ATTR_ALWAYS_INLINE;
			static inline void USB_OTGPAD_Off(void)
			{
				USBCON &= ~(1 << OTGPADE);
    1c4e:	f0 e0       	ldi	r31, 0x00	; 0
    1c50:	80 81       	ld	r24, Z
    1c52:	8f 7e       	andi	r24, 0xEF	; 239
    1c54:	80 83       	st	Z, r24

			static inline void USB_REG_On(void) ATTR_ALWAYS_INLINE;
			static inline void USB_REG_On(void)
			{
			#if defined(USB_SERIES_4_AVR) || defined(USB_SERIES_6_AVR) || defined(USB_SERIES_7_AVR)
				UHWCON |=  (1 << UVREGE);
    1c56:	e7 ed       	ldi	r30, 0xD7	; 215
    1c58:	f0 e0       	ldi	r31, 0x00	; 0
    1c5a:	80 81       	ld	r24, Z
    1c5c:	81 60       	ori	r24, 0x01	; 1
    1c5e:	80 83       	st	Z, r24
	  USB_REG_Off();

	if (!(USB_Options & USB_OPT_MANUAL_PLL))
	{
		#if defined(USB_SERIES_4_AVR)
		PLLFRQ = (1 << PDIV2);
    1c60:	84 e0       	ldi	r24, 0x04	; 4
    1c62:	82 bf       	out	0x32, r24	; 50
		UHWCON &= ~(1 << UIDE);
		USB_CurrentMode = Mode;
	}
	#endif

	USB_IsInitialized = true;
    1c64:	81 e0       	ldi	r24, 0x01	; 1
    1c66:	80 93 40 02 	sts	0x0240, r24	; 0x800240 <USB_IsInitialized>

	USB_ResetInterface();
    1c6a:	b0 cf       	rjmp	.-160    	; 0x1bcc <USB_ResetInterface>
    1c6c:	08 95       	ret

00001c6e <USB_INT_DisableAllInterrupts>:
void USB_INT_DisableAllInterrupts(void)
{
	#if defined(USB_SERIES_6_AVR) || defined(USB_SERIES_7_AVR)
	USBCON &= ~((1 << VBUSTE) | (1 << IDTE));
	#elif defined(USB_SERIES_4_AVR)
	USBCON &= ~(1 << VBUSTE);
    1c6e:	e8 ed       	ldi	r30, 0xD8	; 216
    1c70:	f0 e0       	ldi	r31, 0x00	; 0
    1c72:	80 81       	ld	r24, Z
    1c74:	8e 7f       	andi	r24, 0xFE	; 254
    1c76:	80 83       	st	Z, r24
	#if defined(USB_CAN_BE_HOST)
	UHIEN   = 0;
	#endif

	#if defined(USB_CAN_BE_DEVICE)
	UDIEN   = 0;
    1c78:	10 92 e2 00 	sts	0x00E2, r1	; 0x8000e2 <__TEXT_REGION_LENGTH__+0x7f80e2>
    1c7c:	08 95       	ret

00001c7e <USB_INT_ClearAllInterrupts>:
}

void USB_INT_ClearAllInterrupts(void)
{
	#if defined(USB_SERIES_4_AVR) || defined(USB_SERIES_6_AVR) || defined(USB_SERIES_7_AVR)
	USBINT = 0;
    1c7e:	10 92 da 00 	sts	0x00DA, r1	; 0x8000da <__TEXT_REGION_LENGTH__+0x7f80da>
	#if defined(USB_CAN_BE_HOST)
	UHINT  = 0;
	#endif

	#if defined(USB_CAN_BE_DEVICE)
	UDINT  = 0;
    1c82:	10 92 e1 00 	sts	0x00E1, r1	; 0x8000e1 <__TEXT_REGION_LENGTH__+0x7f80e1>
    1c86:	08 95       	ret

00001c88 <__vector_10>:
	#endif
}

ISR(USB_GEN_vect, ISR_BLOCK)
{
    1c88:	1f 92       	push	r1
    1c8a:	0f 92       	push	r0
    1c8c:	0f b6       	in	r0, 0x3f	; 63
    1c8e:	0f 92       	push	r0
    1c90:	11 24       	eor	r1, r1
    1c92:	2f 93       	push	r18
    1c94:	3f 93       	push	r19
    1c96:	4f 93       	push	r20
    1c98:	5f 93       	push	r21
    1c9a:	6f 93       	push	r22
    1c9c:	7f 93       	push	r23
    1c9e:	8f 93       	push	r24
    1ca0:	9f 93       	push	r25
    1ca2:	af 93       	push	r26
    1ca4:	bf 93       	push	r27
    1ca6:	ef 93       	push	r30
    1ca8:	ff 93       	push	r31
					case USB_INT_SUSPI:
						return (UDINT  & (1 << SUSPI));
					case USB_INT_EORSTI:
						return (UDINT  & (1 << EORSTI));
					case USB_INT_SOFI:
						return (UDINT  & (1 << SOFI));
    1caa:	80 91 e1 00 	lds	r24, 0x00E1	; 0x8000e1 <__TEXT_REGION_LENGTH__+0x7f80e1>
	#if defined(USB_CAN_BE_DEVICE)
	#if !defined(NO_SOF_EVENTS)
	if (USB_INT_HasOccurred(USB_INT_SOFI) && USB_INT_IsEnabled(USB_INT_SOFI))
    1cae:	82 ff       	sbrs	r24, 2
    1cb0:	0a c0       	rjmp	.+20     	; 0x1cc6 <__vector_10+0x3e>
					case USB_INT_SUSPI:
						return (UDIEN  & (1 << SUSPE));
					case USB_INT_EORSTI:
						return (UDIEN  & (1 << EORSTE));
					case USB_INT_SOFI:
						return (UDIEN  & (1 << SOFE));
    1cb2:	80 91 e2 00 	lds	r24, 0x00E2	; 0x8000e2 <__TEXT_REGION_LENGTH__+0x7f80e2>
    1cb6:	82 ff       	sbrs	r24, 2
    1cb8:	06 c0       	rjmp	.+12     	; 0x1cc6 <__vector_10+0x3e>
						break;
					case USB_INT_EORSTI:
						UDINT  &= ~(1 << EORSTI);
						break;
					case USB_INT_SOFI:
						UDINT  &= ~(1 << SOFI);
    1cba:	e1 ee       	ldi	r30, 0xE1	; 225
    1cbc:	f0 e0       	ldi	r31, 0x00	; 0
    1cbe:	80 81       	ld	r24, Z
    1cc0:	8b 7f       	andi	r24, 0xFB	; 251
    1cc2:	80 83       	st	Z, r24
	{
		USB_INT_Clear(USB_INT_SOFI);

		EVENT_USB_Device_StartOfFrame();
    1cc4:	6f d2       	rcall	.+1246   	; 0x21a4 <USB_Event_Stub>
			{
				switch (Interrupt)
				{
					#if (defined(USB_SERIES_4_AVR) || defined(USB_SERIES_6_AVR) || defined(USB_SERIES_7_AVR))
					case USB_INT_VBUSTI:
						return (USBINT & (1 << VBUSTI));
    1cc6:	80 91 da 00 	lds	r24, 0x00DA	; 0x8000da <__TEXT_REGION_LENGTH__+0x7f80da>
	}
	#endif

	#if defined(USB_SERIES_4_AVR) || defined(USB_SERIES_6_AVR) || defined(USB_SERIES_7_AVR)
	if (USB_INT_HasOccurred(USB_INT_VBUSTI) && USB_INT_IsEnabled(USB_INT_VBUSTI))
    1cca:	80 ff       	sbrs	r24, 0
    1ccc:	1d c0       	rjmp	.+58     	; 0x1d08 <__vector_10+0x80>
			{
				switch (Interrupt)
				{
					#if (defined(USB_SERIES_4_AVR) || defined(USB_SERIES_6_AVR) || defined(USB_SERIES_7_AVR))
					case USB_INT_VBUSTI:
						return (USBCON & (1 << VBUSTE));
    1cce:	80 91 d8 00 	lds	r24, 0x00D8	; 0x8000d8 <__TEXT_REGION_LENGTH__+0x7f80d8>
    1cd2:	80 ff       	sbrs	r24, 0
    1cd4:	19 c0       	rjmp	.+50     	; 0x1d08 <__vector_10+0x80>
			{
				switch (Interrupt)
				{
					#if (defined(USB_SERIES_4_AVR) || defined(USB_SERIES_6_AVR) || defined(USB_SERIES_7_AVR))
					case USB_INT_VBUSTI:
						USBINT &= ~(1 << VBUSTI);
    1cd6:	ea ed       	ldi	r30, 0xDA	; 218
    1cd8:	f0 e0       	ldi	r31, 0x00	; 0
    1cda:	80 81       	ld	r24, Z
    1cdc:	8e 7f       	andi	r24, 0xFE	; 254
    1cde:	80 83       	st	Z, r24
				 *  \return Boolean \c true if the VBUS line is currently detecting power from a host, \c false otherwise.
				 */
				static inline bool USB_VBUS_GetStatus(void) ATTR_WARN_UNUSED_RESULT ATTR_ALWAYS_INLINE;
				static inline bool USB_VBUS_GetStatus(void)
				{
					return ((USBSTA & (1 << VBUS)) ? true : false);
    1ce0:	80 91 d9 00 	lds	r24, 0x00D9	; 0x8000d9 <__TEXT_REGION_LENGTH__+0x7f80d9>
	{
		USB_INT_Clear(USB_INT_VBUSTI);

		if (USB_VBUS_GetStatus())
    1ce4:	80 ff       	sbrs	r24, 0
    1ce6:	0c c0       	rjmp	.+24     	; 0x1d00 <__vector_10+0x78>

		/* Inline Functions: */
			static inline void USB_PLL_On(void) ATTR_ALWAYS_INLINE;
			static inline void USB_PLL_On(void)
			{
				PLLCSR = USB_PLL_PSC;
    1ce8:	80 e1       	ldi	r24, 0x10	; 16
    1cea:	89 bd       	out	0x29, r24	; 41
				PLLCSR = (USB_PLL_PSC | (1 << PLLE));
    1cec:	82 e1       	ldi	r24, 0x12	; 18
    1cee:	89 bd       	out	0x29, r24	; 41
		{
			if (!(USB_Options & USB_OPT_MANUAL_PLL))
			{
				USB_PLL_On();
				while (!(USB_PLL_IsReady()));
    1cf0:	09 b4       	in	r0, 0x29	; 41
    1cf2:	00 fe       	sbrs	r0, 0
    1cf4:	fd cf       	rjmp	.-6      	; 0x1cf0 <__vector_10+0x68>
			}

			USB_DeviceState = DEVICE_STATE_Powered;
    1cf6:	81 e0       	ldi	r24, 0x01	; 1
    1cf8:	80 93 41 02 	sts	0x0241, r24	; 0x800241 <USB_DeviceState>
			EVENT_USB_Device_Connect();
    1cfc:	c3 d2       	rcall	.+1414   	; 0x2284 <EVENT_USB_Device_Connect>
    1cfe:	04 c0       	rjmp	.+8      	; 0x1d08 <__vector_10+0x80>
			}

			static inline void USB_PLL_Off(void) ATTR_ALWAYS_INLINE;
			static inline void USB_PLL_Off(void)
			{
				PLLCSR = 0;
    1d00:	19 bc       	out	0x29, r1	; 41
		else
		{
			if (!(USB_Options & USB_OPT_MANUAL_PLL))
			  USB_PLL_Off();

			USB_DeviceState = DEVICE_STATE_Unattached;
    1d02:	10 92 41 02 	sts	0x0241, r1	; 0x800241 <USB_DeviceState>
			EVENT_USB_Device_Disconnect();
    1d06:	bf d2       	rcall	.+1406   	; 0x2286 <EVENT_USB_Device_Disconnect>
					#endif
					#if defined(USB_CAN_BE_DEVICE)
					case USB_INT_WAKEUPI:
						return (UDINT  & (1 << WAKEUPI));
					case USB_INT_SUSPI:
						return (UDINT  & (1 << SUSPI));
    1d08:	80 91 e1 00 	lds	r24, 0x00E1	; 0x8000e1 <__TEXT_REGION_LENGTH__+0x7f80e1>
		}
	}
	#endif

	if (USB_INT_HasOccurred(USB_INT_SUSPI) && USB_INT_IsEnabled(USB_INT_SUSPI))
    1d0c:	80 ff       	sbrs	r24, 0
    1d0e:	16 c0       	rjmp	.+44     	; 0x1d3c <__vector_10+0xb4>
					#endif
					#if defined(USB_CAN_BE_DEVICE)
					case USB_INT_WAKEUPI:
						return (UDIEN  & (1 << WAKEUPE));
					case USB_INT_SUSPI:
						return (UDIEN  & (1 << SUSPE));
    1d10:	80 91 e2 00 	lds	r24, 0x00E2	; 0x8000e2 <__TEXT_REGION_LENGTH__+0x7f80e2>
    1d14:	80 ff       	sbrs	r24, 0
    1d16:	12 c0       	rjmp	.+36     	; 0x1d3c <__vector_10+0xb4>
					#if defined(USB_CAN_BE_DEVICE)
					case USB_INT_WAKEUPI:
						UDIEN  &= ~(1 << WAKEUPE);
						break;
					case USB_INT_SUSPI:
						UDIEN  &= ~(1 << SUSPE);
    1d18:	e2 ee       	ldi	r30, 0xE2	; 226
    1d1a:	f0 e0       	ldi	r31, 0x00	; 0
    1d1c:	80 81       	ld	r24, Z
    1d1e:	8e 7f       	andi	r24, 0xFE	; 254
    1d20:	80 83       	st	Z, r24
						USBCON |= (1 << IDTE);
						break;
					#endif
					#if defined(USB_CAN_BE_DEVICE)
					case USB_INT_WAKEUPI:
						UDIEN  |= (1 << WAKEUPE);
    1d22:	80 81       	ld	r24, Z
    1d24:	80 61       	ori	r24, 0x10	; 16
    1d26:	80 83       	st	Z, r24
			#endif

			static inline void USB_CLK_Freeze(void) ATTR_ALWAYS_INLINE;
			static inline void USB_CLK_Freeze(void)
			{
				USBCON |=  (1 << FRZCLK);
    1d28:	e8 ed       	ldi	r30, 0xD8	; 216
    1d2a:	f0 e0       	ldi	r31, 0x00	; 0
    1d2c:	80 81       	ld	r24, Z
    1d2e:	80 62       	ori	r24, 0x20	; 32
    1d30:	80 83       	st	Z, r24
			}

			static inline void USB_PLL_Off(void) ATTR_ALWAYS_INLINE;
			static inline void USB_PLL_Off(void)
			{
				PLLCSR = 0;
    1d32:	19 bc       	out	0x29, r1	; 41

		#if defined(USB_SERIES_2_AVR) && !defined(NO_LIMITED_CONTROLLER_CONNECT)
		USB_DeviceState = DEVICE_STATE_Unattached;
		EVENT_USB_Device_Disconnect();
		#else
		USB_DeviceState = DEVICE_STATE_Suspended;
    1d34:	85 e0       	ldi	r24, 0x05	; 5
    1d36:	80 93 41 02 	sts	0x0241, r24	; 0x800241 <USB_DeviceState>
		EVENT_USB_Device_Suspend();
    1d3a:	34 d2       	rcall	.+1128   	; 0x21a4 <USB_Event_Stub>
					case USB_INT_IDTI:
						return (USBINT & (1 << IDTI));
					#endif
					#if defined(USB_CAN_BE_DEVICE)
					case USB_INT_WAKEUPI:
						return (UDINT  & (1 << WAKEUPI));
    1d3c:	80 91 e1 00 	lds	r24, 0x00E1	; 0x8000e1 <__TEXT_REGION_LENGTH__+0x7f80e1>
		#endif
	}

	if (USB_INT_HasOccurred(USB_INT_WAKEUPI) && USB_INT_IsEnabled(USB_INT_WAKEUPI))
    1d40:	84 ff       	sbrs	r24, 4
    1d42:	2f c0       	rjmp	.+94     	; 0x1da2 <__vector_10+0x11a>
					case USB_INT_IDTI:
						return (USBCON & (1 << IDTE));
					#endif
					#if defined(USB_CAN_BE_DEVICE)
					case USB_INT_WAKEUPI:
						return (UDIEN  & (1 << WAKEUPE));
    1d44:	80 91 e2 00 	lds	r24, 0x00E2	; 0x8000e2 <__TEXT_REGION_LENGTH__+0x7f80e2>
    1d48:	84 ff       	sbrs	r24, 4
    1d4a:	2b c0       	rjmp	.+86     	; 0x1da2 <__vector_10+0x11a>

		/* Inline Functions: */
			static inline void USB_PLL_On(void) ATTR_ALWAYS_INLINE;
			static inline void USB_PLL_On(void)
			{
				PLLCSR = USB_PLL_PSC;
    1d4c:	80 e1       	ldi	r24, 0x10	; 16
    1d4e:	89 bd       	out	0x29, r24	; 41
				PLLCSR = (USB_PLL_PSC | (1 << PLLE));
    1d50:	82 e1       	ldi	r24, 0x12	; 18
    1d52:	89 bd       	out	0x29, r24	; 41
	{
		if (!(USB_Options & USB_OPT_MANUAL_PLL))
		{
			USB_PLL_On();
			while (!(USB_PLL_IsReady()));
    1d54:	09 b4       	in	r0, 0x29	; 41
    1d56:	00 fe       	sbrs	r0, 0
    1d58:	fd cf       	rjmp	.-6      	; 0x1d54 <__vector_10+0xcc>
			}

			static inline void USB_CLK_Unfreeze(void) ATTR_ALWAYS_INLINE;
			static inline void USB_CLK_Unfreeze(void)
			{
				USBCON &= ~(1 << FRZCLK);
    1d5a:	e8 ed       	ldi	r30, 0xD8	; 216
    1d5c:	f0 e0       	ldi	r31, 0x00	; 0
    1d5e:	80 81       	ld	r24, Z
    1d60:	8f 7d       	andi	r24, 0xDF	; 223
    1d62:	80 83       	st	Z, r24
						USBINT &= ~(1 << IDTI);
						break;
					#endif
					#if defined(USB_CAN_BE_DEVICE)
					case USB_INT_WAKEUPI:
						UDINT  &= ~(1 << WAKEUPI);
    1d64:	e1 ee       	ldi	r30, 0xE1	; 225
    1d66:	f0 e0       	ldi	r31, 0x00	; 0
    1d68:	80 81       	ld	r24, Z
    1d6a:	8f 7e       	andi	r24, 0xEF	; 239
    1d6c:	80 83       	st	Z, r24
						USBCON &= ~(1 << IDTE);
						break;
					#endif
					#if defined(USB_CAN_BE_DEVICE)
					case USB_INT_WAKEUPI:
						UDIEN  &= ~(1 << WAKEUPE);
    1d6e:	e2 ee       	ldi	r30, 0xE2	; 226
    1d70:	f0 e0       	ldi	r31, 0x00	; 0
    1d72:	80 81       	ld	r24, Z
    1d74:	8f 7e       	andi	r24, 0xEF	; 239
    1d76:	80 83       	st	Z, r24
					#if defined(USB_CAN_BE_DEVICE)
					case USB_INT_WAKEUPI:
						UDIEN  |= (1 << WAKEUPE);
						break;
					case USB_INT_SUSPI:
						UDIEN  |= (1 << SUSPE);
    1d78:	80 81       	ld	r24, Z
    1d7a:	81 60       	ori	r24, 0x01	; 1
    1d7c:	80 83       	st	Z, r24
		USB_INT_Clear(USB_INT_WAKEUPI);

		USB_INT_Disable(USB_INT_WAKEUPI);
		USB_INT_Enable(USB_INT_SUSPI);

		if (USB_Device_ConfigurationNumber)
    1d7e:	80 91 3d 02 	lds	r24, 0x023D	; 0x80023d <USB_Device_ConfigurationNumber>
    1d82:	88 23       	and	r24, r24
    1d84:	21 f0       	breq	.+8      	; 0x1d8e <__vector_10+0x106>
		  USB_DeviceState = DEVICE_STATE_Configured;
    1d86:	84 e0       	ldi	r24, 0x04	; 4
    1d88:	80 93 41 02 	sts	0x0241, r24	; 0x800241 <USB_DeviceState>
    1d8c:	09 c0       	rjmp	.+18     	; 0x1da0 <__vector_10+0x118>
			}

			static inline bool USB_Device_IsAddressSet(void) ATTR_ALWAYS_INLINE ATTR_WARN_UNUSED_RESULT;
			static inline bool USB_Device_IsAddressSet(void)
			{
				return (UDADDR & (1 << ADDEN));
    1d8e:	80 91 e3 00 	lds	r24, 0x00E3	; 0x8000e3 <__TEXT_REGION_LENGTH__+0x7f80e3>
		else
		  USB_DeviceState = (USB_Device_IsAddressSet()) ? DEVICE_STATE_Addressed : DEVICE_STATE_Powered;
    1d92:	88 23       	and	r24, r24
    1d94:	14 f0       	brlt	.+4      	; 0x1d9a <__vector_10+0x112>
    1d96:	81 e0       	ldi	r24, 0x01	; 1
    1d98:	01 c0       	rjmp	.+2      	; 0x1d9c <__vector_10+0x114>
    1d9a:	83 e0       	ldi	r24, 0x03	; 3
    1d9c:	80 93 41 02 	sts	0x0241, r24	; 0x800241 <USB_DeviceState>

		#if defined(USB_SERIES_2_AVR) && !defined(NO_LIMITED_CONTROLLER_CONNECT)
		EVENT_USB_Device_Connect();
		#else
		EVENT_USB_Device_WakeUp();
    1da0:	01 d2       	rcall	.+1026   	; 0x21a4 <USB_Event_Stub>
					case USB_INT_WAKEUPI:
						return (UDINT  & (1 << WAKEUPI));
					case USB_INT_SUSPI:
						return (UDINT  & (1 << SUSPI));
					case USB_INT_EORSTI:
						return (UDINT  & (1 << EORSTI));
    1da2:	80 91 e1 00 	lds	r24, 0x00E1	; 0x8000e1 <__TEXT_REGION_LENGTH__+0x7f80e1>
		#endif
	}

	if (USB_INT_HasOccurred(USB_INT_EORSTI) && USB_INT_IsEnabled(USB_INT_EORSTI))
    1da6:	83 ff       	sbrs	r24, 3
    1da8:	23 c0       	rjmp	.+70     	; 0x1df0 <__vector_10+0x168>
					case USB_INT_WAKEUPI:
						return (UDIEN  & (1 << WAKEUPE));
					case USB_INT_SUSPI:
						return (UDIEN  & (1 << SUSPE));
					case USB_INT_EORSTI:
						return (UDIEN  & (1 << EORSTE));
    1daa:	80 91 e2 00 	lds	r24, 0x00E2	; 0x8000e2 <__TEXT_REGION_LENGTH__+0x7f80e2>
    1dae:	83 ff       	sbrs	r24, 3
    1db0:	1f c0       	rjmp	.+62     	; 0x1df0 <__vector_10+0x168>
						break;
					case USB_INT_SUSPI:
						UDINT  &= ~(1 << SUSPI);
						break;
					case USB_INT_EORSTI:
						UDINT  &= ~(1 << EORSTI);
    1db2:	e1 ee       	ldi	r30, 0xE1	; 225
    1db4:	f0 e0       	ldi	r31, 0x00	; 0
    1db6:	80 81       	ld	r24, Z
    1db8:	87 7f       	andi	r24, 0xF7	; 247
    1dba:	80 83       	st	Z, r24
	{
		USB_INT_Clear(USB_INT_EORSTI);

		USB_DeviceState                = DEVICE_STATE_Default;
    1dbc:	82 e0       	ldi	r24, 0x02	; 2
    1dbe:	80 93 41 02 	sts	0x0241, r24	; 0x800241 <USB_DeviceState>
		USB_Device_ConfigurationNumber = 0;
    1dc2:	10 92 3d 02 	sts	0x023D, r1	; 0x80023d <USB_Device_ConfigurationNumber>
					#if defined(USB_CAN_BE_DEVICE)
					case USB_INT_WAKEUPI:
						UDINT  &= ~(1 << WAKEUPI);
						break;
					case USB_INT_SUSPI:
						UDINT  &= ~(1 << SUSPI);
    1dc6:	80 81       	ld	r24, Z
    1dc8:	8e 7f       	andi	r24, 0xFE	; 254
    1dca:	80 83       	st	Z, r24
					#if defined(USB_CAN_BE_DEVICE)
					case USB_INT_WAKEUPI:
						UDIEN  &= ~(1 << WAKEUPE);
						break;
					case USB_INT_SUSPI:
						UDIEN  &= ~(1 << SUSPE);
    1dcc:	e2 ee       	ldi	r30, 0xE2	; 226
    1dce:	f0 e0       	ldi	r31, 0x00	; 0
    1dd0:	80 81       	ld	r24, Z
    1dd2:	8e 7f       	andi	r24, 0xFE	; 254
    1dd4:	80 83       	st	Z, r24
						USBCON |= (1 << IDTE);
						break;
					#endif
					#if defined(USB_CAN_BE_DEVICE)
					case USB_INT_WAKEUPI:
						UDIEN  |= (1 << WAKEUPE);
    1dd6:	80 81       	ld	r24, Z
    1dd8:	80 61       	ori	r24, 0x10	; 16
				uint8_t Number = (Address & ENDPOINT_EPNUM_MASK);

				if (Number >= ENDPOINT_TOTAL_ENDPOINTS)
				  return false;

				return Endpoint_ConfigureEndpoint_Prv(Number,
    1dda:	80 83       	st	Z, r24
    1ddc:	42 e0       	ldi	r20, 0x02	; 2
    1dde:	60 e0       	ldi	r22, 0x00	; 0
    1de0:	80 e0       	ldi	r24, 0x00	; 0
						break;
					case USB_INT_SOFI:
						UDIEN  |= (1 << SOFE);
						break;
					case USB_INT_RXSTPI:
						UEIENX |= (1 << RXSTPE);
    1de2:	da dd       	rcall	.-1100   	; 0x1998 <Endpoint_ConfigureEndpoint_Prv>
    1de4:	e0 ef       	ldi	r30, 0xF0	; 240
    1de6:	f0 e0       	ldi	r31, 0x00	; 0
    1de8:	80 81       	ld	r24, Z
    1dea:	88 60       	ori	r24, 0x08	; 8

		#if defined(INTERRUPT_CONTROL_ENDPOINT)
		USB_INT_Enable(USB_INT_RXSTPI);
		#endif

		EVENT_USB_Device_Reset();
    1dec:	80 83       	st	Z, r24
    1dee:	da d1       	rcall	.+948    	; 0x21a4 <USB_Event_Stub>
		USB_ResetInterface();

		EVENT_USB_UIDChange();
	}
	#endif
}
    1df0:	ff 91       	pop	r31
    1df2:	ef 91       	pop	r30
    1df4:	bf 91       	pop	r27
    1df6:	af 91       	pop	r26
    1df8:	9f 91       	pop	r25
    1dfa:	8f 91       	pop	r24
    1dfc:	7f 91       	pop	r23
    1dfe:	6f 91       	pop	r22
    1e00:	5f 91       	pop	r21
    1e02:	4f 91       	pop	r20
    1e04:	3f 91       	pop	r19
    1e06:	2f 91       	pop	r18
    1e08:	0f 90       	pop	r0
    1e0a:	0f be       	out	0x3f, r0	; 63
    1e0c:	0f 90       	pop	r0
    1e0e:	1f 90       	pop	r1
    1e10:	18 95       	reti

00001e12 <__vector_11>:

#if defined(INTERRUPT_CONTROL_ENDPOINT) && defined(USB_CAN_BE_DEVICE)
ISR(USB_COM_vect, ISR_BLOCK)
{
    1e12:	1f 92       	push	r1
    1e14:	0f 92       	push	r0
    1e16:	0f b6       	in	r0, 0x3f	; 63
    1e18:	0f 92       	push	r0
    1e1a:	11 24       	eor	r1, r1
    1e1c:	ef 92       	push	r14
    1e1e:	ff 92       	push	r15
    1e20:	0f 93       	push	r16
    1e22:	1f 93       	push	r17
    1e24:	2f 93       	push	r18
    1e26:	3f 93       	push	r19
    1e28:	4f 93       	push	r20
    1e2a:	5f 93       	push	r21
    1e2c:	6f 93       	push	r22
    1e2e:	7f 93       	push	r23
    1e30:	8f 93       	push	r24
    1e32:	9f 93       	push	r25
    1e34:	af 93       	push	r26
    1e36:	bf 93       	push	r27
    1e38:	cf 93       	push	r28
    1e3a:	df 93       	push	r29
    1e3c:	ef 93       	push	r30
    1e3e:	ff 93       	push	r31
			 */
			static inline uint8_t Endpoint_GetCurrentEndpoint(void) ATTR_WARN_UNUSED_RESULT ATTR_ALWAYS_INLINE;
			static inline uint8_t Endpoint_GetCurrentEndpoint(void)
			{
				#if !defined(CONTROL_ONLY_DEVICE)
					return ((UENUM & ENDPOINT_EPNUM_MASK) | Endpoint_GetEndpointDirection());
    1e40:	c0 91 e9 00 	lds	r28, 0x00E9	; 0x8000e9 <__TEXT_REGION_LENGTH__+0x7f80e9>
    1e44:	cf 70       	andi	r28, 0x0F	; 15
			 *  \return The currently selected endpoint's direction, as a \c ENDPOINT_DIR_* mask.
			 */
			static inline uint8_t Endpoint_GetEndpointDirection(void) ATTR_WARN_UNUSED_RESULT ATTR_ALWAYS_INLINE;
			static inline uint8_t Endpoint_GetEndpointDirection(void)
			{
				return (UECFG0X & (1 << EPDIR)) ? ENDPOINT_DIR_IN : ENDPOINT_DIR_OUT;
    1e46:	80 91 ec 00 	lds	r24, 0x00EC	; 0x8000ec <__TEXT_REGION_LENGTH__+0x7f80ec>
    1e4a:	d8 2f       	mov	r29, r24
    1e4c:	d1 70       	andi	r29, 0x01	; 1
    1e4e:	80 fd       	sbrc	r24, 0
    1e50:	d0 e8       	ldi	r29, 0x80	; 128
			 */
			static inline void Endpoint_SelectEndpoint(const uint8_t Address) ATTR_ALWAYS_INLINE;
			static inline void Endpoint_SelectEndpoint(const uint8_t Address)
			{
				#if !defined(CONTROL_ONLY_DEVICE)
					UENUM = (Address & ENDPOINT_EPNUM_MASK);
    1e52:	0f 2e       	mov	r0, r31
    1e54:	f9 ee       	ldi	r31, 0xE9	; 233
    1e56:	ef 2e       	mov	r14, r31
    1e58:	f1 2c       	mov	r15, r1
    1e5a:	f0 2d       	mov	r31, r0
    1e5c:	f7 01       	movw	r30, r14
    1e5e:	10 82       	st	Z, r1
						break;
					case USB_INT_SOFI:
						UDIEN  &= ~(1 << SOFE);
						break;
					case USB_INT_RXSTPI:
						UEIENX &= ~(1 << RXSTPE);
    1e60:	00 ef       	ldi	r16, 0xF0	; 240
    1e62:	10 e0       	ldi	r17, 0x00	; 0
    1e64:	f8 01       	movw	r30, r16
    1e66:	80 81       	ld	r24, Z
    1e68:	87 7f       	andi	r24, 0xF7	; 247
    1e6a:	80 83       	st	Z, r24
			static inline void GlobalInterruptEnable(void)
			{
				GCC_MEMORY_BARRIER();

				#if (ARCH == ARCH_AVR8)
				sei();
    1e6c:	78 94       	sei
	Endpoint_SelectEndpoint(ENDPOINT_CONTROLEP);
	USB_INT_Disable(USB_INT_RXSTPI);

	GlobalInterruptEnable();

	USB_Device_ProcessControlRequest();
    1e6e:	21 d0       	rcall	.+66     	; 0x1eb2 <USB_Device_ProcessControlRequest>
    1e70:	f7 01       	movw	r30, r14
    1e72:	10 82       	st	Z, r1
						break;
					case USB_INT_SOFI:
						UDIEN  |= (1 << SOFE);
						break;
					case USB_INT_RXSTPI:
						UEIENX |= (1 << RXSTPE);
    1e74:	f8 01       	movw	r30, r16
    1e76:	80 81       	ld	r24, Z
    1e78:	88 60       	ori	r24, 0x08	; 8
    1e7a:	80 83       	st	Z, r24
    1e7c:	cd 2b       	or	r28, r29
    1e7e:	cf 70       	andi	r28, 0x0F	; 15
    1e80:	f7 01       	movw	r30, r14
    1e82:	c0 83       	st	Z, r28

	Endpoint_SelectEndpoint(ENDPOINT_CONTROLEP);
	USB_INT_Enable(USB_INT_RXSTPI);
	Endpoint_SelectEndpoint(PrevSelectedEndpoint);
}
    1e84:	ff 91       	pop	r31
    1e86:	ef 91       	pop	r30
    1e88:	df 91       	pop	r29
    1e8a:	cf 91       	pop	r28
    1e8c:	bf 91       	pop	r27
    1e8e:	af 91       	pop	r26
    1e90:	9f 91       	pop	r25
    1e92:	8f 91       	pop	r24
    1e94:	7f 91       	pop	r23
    1e96:	6f 91       	pop	r22
    1e98:	5f 91       	pop	r21
    1e9a:	4f 91       	pop	r20
    1e9c:	3f 91       	pop	r19
    1e9e:	2f 91       	pop	r18
    1ea0:	1f 91       	pop	r17
    1ea2:	0f 91       	pop	r16
    1ea4:	ff 90       	pop	r15
    1ea6:	ef 90       	pop	r14
    1ea8:	0f 90       	pop	r0
    1eaa:	0f be       	out	0x3f, r0	; 63
    1eac:	0f 90       	pop	r0
    1eae:	1f 90       	pop	r1
    1eb0:	18 95       	reti

00001eb2 <USB_Device_ProcessControlRequest>:
#if !defined(NO_DEVICE_REMOTE_WAKEUP)
bool    USB_Device_RemoteWakeupEnabled;
#endif

void USB_Device_ProcessControlRequest(void)
{
    1eb2:	0f 93       	push	r16
    1eb4:	1f 93       	push	r17
    1eb6:	cf 93       	push	r28
    1eb8:	df 93       	push	r29
    1eba:	cd b7       	in	r28, 0x3d	; 61
    1ebc:	de b7       	in	r29, 0x3e	; 62
    1ebe:	aa 97       	sbiw	r28, 0x2a	; 42
    1ec0:	0f b6       	in	r0, 0x3f	; 63
    1ec2:	f8 94       	cli
    1ec4:	de bf       	out	0x3e, r29	; 62
    1ec6:	0f be       	out	0x3f, r0	; 63
    1ec8:	cd bf       	out	0x3d, r28	; 61
    1eca:	e2 e4       	ldi	r30, 0x42	; 66
    1ecc:	f2 e0       	ldi	r31, 0x02	; 2
    1ece:	2a e4       	ldi	r18, 0x4A	; 74
    1ed0:	32 e0       	ldi	r19, 0x02	; 2
			 *  \return Next byte in the currently selected endpoint's FIFO buffer.
			 */
			static inline uint8_t Endpoint_Read_8(void) ATTR_WARN_UNUSED_RESULT ATTR_ALWAYS_INLINE;
			static inline uint8_t Endpoint_Read_8(void)
			{
				return UEDATX;
    1ed2:	a1 ef       	ldi	r26, 0xF1	; 241
    1ed4:	b0 e0       	ldi	r27, 0x00	; 0
    1ed6:	8c 91       	ld	r24, X
	USB_ControlRequest.wLength       = Endpoint_Read_16_LE();
	#else
	uint8_t* RequestHeader = (uint8_t*)&USB_ControlRequest;

	for (uint8_t RequestHeaderByte = 0; RequestHeaderByte < sizeof(USB_Request_Header_t); RequestHeaderByte++)
	  *(RequestHeader++) = Endpoint_Read_8();
    1ed8:	81 93       	st	Z+, r24
	USB_ControlRequest.wIndex        = Endpoint_Read_16_LE();
	USB_ControlRequest.wLength       = Endpoint_Read_16_LE();
	#else
	uint8_t* RequestHeader = (uint8_t*)&USB_ControlRequest;

	for (uint8_t RequestHeaderByte = 0; RequestHeaderByte < sizeof(USB_Request_Header_t); RequestHeaderByte++)
    1eda:	2e 17       	cp	r18, r30
    1edc:	3f 07       	cpc	r19, r31
    1ede:	d9 f7       	brne	.-10     	; 0x1ed6 <USB_Device_ProcessControlRequest+0x24>
	  *(RequestHeader++) = Endpoint_Read_8();
	#endif

	EVENT_USB_Device_ControlRequest();
    1ee0:	d7 d1       	rcall	.+942    	; 0x2290 <EVENT_USB_Device_ControlRequest>
			 *  \return Boolean \c true if the selected endpoint has received a SETUP packet, \c false otherwise.
			 */
			static inline bool Endpoint_IsSETUPReceived(void) ATTR_WARN_UNUSED_RESULT ATTR_ALWAYS_INLINE;
			static inline bool Endpoint_IsSETUPReceived(void)
			{
				return ((UEINTX & (1 << RXSTPI)) ? true : false);
    1ee2:	80 91 e8 00 	lds	r24, 0x00E8	; 0x8000e8 <__TEXT_REGION_LENGTH__+0x7f80e8>

	if (Endpoint_IsSETUPReceived())
    1ee6:	83 ff       	sbrs	r24, 3
    1ee8:	38 c1       	rjmp	.+624    	; 0x215a <USB_Device_ProcessControlRequest+0x2a8>
	{
		uint8_t bmRequestType = USB_ControlRequest.bmRequestType;
    1eea:	e2 e4       	ldi	r30, 0x42	; 66
    1eec:	f2 e0       	ldi	r31, 0x02	; 2
    1eee:	90 81       	ld	r25, Z

		switch (USB_ControlRequest.bRequest)
    1ef0:	81 81       	ldd	r24, Z+1	; 0x01
    1ef2:	85 30       	cpi	r24, 0x05	; 5
    1ef4:	09 f4       	brne	.+2      	; 0x1ef8 <USB_Device_ProcessControlRequest+0x46>
    1ef6:	7f c0       	rjmp	.+254    	; 0x1ff6 <USB_Device_ProcessControlRequest+0x144>
    1ef8:	30 f4       	brcc	.+12     	; 0x1f06 <USB_Device_ProcessControlRequest+0x54>
    1efa:	81 30       	cpi	r24, 0x01	; 1
    1efc:	c9 f1       	breq	.+114    	; 0x1f70 <USB_Device_ProcessControlRequest+0xbe>
    1efe:	68 f0       	brcs	.+26     	; 0x1f1a <USB_Device_ProcessControlRequest+0x68>
    1f00:	83 30       	cpi	r24, 0x03	; 3
    1f02:	b1 f1       	breq	.+108    	; 0x1f70 <USB_Device_ProcessControlRequest+0xbe>
    1f04:	2a c1       	rjmp	.+596    	; 0x215a <USB_Device_ProcessControlRequest+0x2a8>
    1f06:	88 30       	cpi	r24, 0x08	; 8
    1f08:	09 f4       	brne	.+2      	; 0x1f0c <USB_Device_ProcessControlRequest+0x5a>
    1f0a:	f2 c0       	rjmp	.+484    	; 0x20f0 <USB_Device_ProcessControlRequest+0x23e>
    1f0c:	89 30       	cpi	r24, 0x09	; 9
    1f0e:	09 f4       	brne	.+2      	; 0x1f12 <USB_Device_ProcessControlRequest+0x60>
    1f10:	ff c0       	rjmp	.+510    	; 0x2110 <USB_Device_ProcessControlRequest+0x25e>
    1f12:	86 30       	cpi	r24, 0x06	; 6
    1f14:	09 f0       	breq	.+2      	; 0x1f18 <USB_Device_ProcessControlRequest+0x66>
    1f16:	21 c1       	rjmp	.+578    	; 0x215a <USB_Device_ProcessControlRequest+0x2a8>
    1f18:	91 c0       	rjmp	.+290    	; 0x203c <USB_Device_ProcessControlRequest+0x18a>
		{
			case REQ_GetStatus:
				if ((bmRequestType == (REQDIR_DEVICETOHOST | REQTYPE_STANDARD | REQREC_DEVICE)) ||
    1f1a:	90 38       	cpi	r25, 0x80	; 128
    1f1c:	21 f0       	breq	.+8      	; 0x1f26 <USB_Device_ProcessControlRequest+0x74>
    1f1e:	92 38       	cpi	r25, 0x82	; 130
    1f20:	09 f0       	breq	.+2      	; 0x1f24 <USB_Device_ProcessControlRequest+0x72>
    1f22:	1b c1       	rjmp	.+566    	; 0x215a <USB_Device_ProcessControlRequest+0x2a8>
    1f24:	08 c0       	rjmp	.+16     	; 0x1f36 <USB_Device_ProcessControlRequest+0x84>
	Endpoint_ClearOUT();
}

static void USB_Device_GetStatus(void)
{
	uint8_t CurrentStatus = 0;
    1f26:	80 91 3e 02 	lds	r24, 0x023E	; 0x80023e <USB_Device_CurrentlySelfPowered>
			if (USB_Device_CurrentlySelfPowered)
			  CurrentStatus |= FEATURE_SELFPOWERED_ENABLED;
			#endif

			#if !defined(NO_DEVICE_REMOTE_WAKEUP)
			if (USB_Device_RemoteWakeupEnabled)
    1f2a:	90 91 3f 02 	lds	r25, 0x023F	; 0x80023f <USB_Device_RemoteWakeupEnabled>
    1f2e:	99 23       	and	r25, r25
    1f30:	89 f0       	breq	.+34     	; 0x1f54 <USB_Device_ProcessControlRequest+0xa2>
			  CurrentStatus |= FEATURE_REMOTE_WAKEUP_ENABLED;
    1f32:	82 60       	ori	r24, 0x02	; 2
    1f34:	0f c0       	rjmp	.+30     	; 0x1f54 <USB_Device_ProcessControlRequest+0xa2>
			break;
		}
		case (REQDIR_DEVICETOHOST | REQTYPE_STANDARD | REQREC_ENDPOINT):
		{
			#if !defined(CONTROL_ONLY_DEVICE)
			uint8_t EndpointIndex = ((uint8_t)USB_ControlRequest.wIndex & ENDPOINT_EPNUM_MASK);
    1f36:	80 91 46 02 	lds	r24, 0x0246	; 0x800246 <USB_ControlRequest+0x4>
    1f3a:	8f 70       	andi	r24, 0x0F	; 15

			if (EndpointIndex >= ENDPOINT_TOTAL_ENDPOINTS)
    1f3c:	87 30       	cpi	r24, 0x07	; 7
    1f3e:	08 f0       	brcs	.+2      	; 0x1f42 <USB_Device_ProcessControlRequest+0x90>
    1f40:	0c c1       	rjmp	.+536    	; 0x215a <USB_Device_ProcessControlRequest+0x2a8>
			 */
			static inline void Endpoint_SelectEndpoint(const uint8_t Address) ATTR_ALWAYS_INLINE;
			static inline void Endpoint_SelectEndpoint(const uint8_t Address)
			{
				#if !defined(CONTROL_ONLY_DEVICE)
					UENUM = (Address & ENDPOINT_EPNUM_MASK);
    1f42:	e9 ee       	ldi	r30, 0xE9	; 233
    1f44:	f0 e0       	ldi	r31, 0x00	; 0
    1f46:	80 83       	st	Z, r24
			 *  \return Boolean \c true if the currently selected endpoint is stalled, \c false otherwise.
			 */
			static inline bool Endpoint_IsStalled(void) ATTR_WARN_UNUSED_RESULT ATTR_ALWAYS_INLINE;
			static inline bool Endpoint_IsStalled(void)
			{
				return ((UECONX & (1 << STALLRQ)) ? true : false);
    1f48:	80 91 eb 00 	lds	r24, 0x00EB	; 0x8000eb <__TEXT_REGION_LENGTH__+0x7f80eb>
				return;

			Endpoint_SelectEndpoint(EndpointIndex);

			CurrentStatus = Endpoint_IsStalled();
    1f4c:	85 fb       	bst	r24, 5
    1f4e:	88 27       	eor	r24, r24
    1f50:	80 f9       	bld	r24, 0
			 */
			static inline void Endpoint_SelectEndpoint(const uint8_t Address) ATTR_ALWAYS_INLINE;
			static inline void Endpoint_SelectEndpoint(const uint8_t Address)
			{
				#if !defined(CONTROL_ONLY_DEVICE)
					UENUM = (Address & ENDPOINT_EPNUM_MASK);
    1f52:	10 82       	st	Z, r1
			 *  \note This is not applicable for non CONTROL type endpoints.
			 */
			static inline void Endpoint_ClearSETUP(void) ATTR_ALWAYS_INLINE;
			static inline void Endpoint_ClearSETUP(void)
			{
				UEINTX &= ~(1 << RXSTPI);
    1f54:	e8 ee       	ldi	r30, 0xE8	; 232
    1f56:	f0 e0       	ldi	r31, 0x00	; 0
    1f58:	90 81       	ld	r25, Z
    1f5a:	97 7f       	andi	r25, 0xF7	; 247
    1f5c:	90 83       	st	Z, r25
			 *  \param[in] Data  Data to write to the currently selected endpoint's FIFO buffer.
			 */
			static inline void Endpoint_Write_16_LE(const uint16_t Data) ATTR_ALWAYS_INLINE;
			static inline void Endpoint_Write_16_LE(const uint16_t Data)
			{
				UEDATX = (Data & 0xFF);
    1f5e:	a1 ef       	ldi	r26, 0xF1	; 241
    1f60:	b0 e0       	ldi	r27, 0x00	; 0
    1f62:	8c 93       	st	X, r24
				UEDATX = (Data >> 8);
    1f64:	1c 92       	st	X, r1
			 */
			static inline void Endpoint_ClearIN(void) ATTR_ALWAYS_INLINE;
			static inline void Endpoint_ClearIN(void)
			{
				#if !defined(CONTROL_ONLY_DEVICE)
					UEINTX &= ~((1 << TXINI) | (1 << FIFOCON));
    1f66:	80 81       	ld	r24, Z
    1f68:	8e 77       	andi	r24, 0x7E	; 126
	Endpoint_ClearSETUP();

	Endpoint_Write_16_LE(CurrentStatus);
	Endpoint_ClearIN();

	Endpoint_ClearStatusStage();
    1f6a:	80 83       	st	Z, r24
    1f6c:	ca dd       	rcall	.-1132   	; 0x1b02 <Endpoint_ClearStatusStage>
    1f6e:	f5 c0       	rjmp	.+490    	; 0x215a <USB_Device_ProcessControlRequest+0x2a8>
				}

				break;
			case REQ_ClearFeature:
			case REQ_SetFeature:
				if ((bmRequestType == (REQDIR_HOSTTODEVICE | REQTYPE_STANDARD | REQREC_DEVICE)) ||
    1f70:	99 23       	and	r25, r25
    1f72:	09 f4       	brne	.+2      	; 0x1f76 <USB_Device_ProcessControlRequest+0xc4>
    1f74:	01 c1       	rjmp	.+514    	; 0x2178 <USB_Device_ProcessControlRequest+0x2c6>
    1f76:	92 30       	cpi	r25, 0x02	; 2
    1f78:	09 f0       	breq	.+2      	; 0x1f7c <USB_Device_ProcessControlRequest+0xca>
    1f7a:	ef c0       	rjmp	.+478    	; 0x215a <USB_Device_ProcessControlRequest+0x2a8>
    1f7c:	02 c1       	rjmp	.+516    	; 0x2182 <USB_Device_ProcessControlRequest+0x2d0>
	{
		#if !defined(NO_DEVICE_REMOTE_WAKEUP)
		case REQREC_DEVICE:
		{
			if ((uint8_t)USB_ControlRequest.wValue == FEATURE_SEL_DeviceRemoteWakeup)
			  USB_Device_RemoteWakeupEnabled = (USB_ControlRequest.bRequest == REQ_SetFeature);
    1f7e:	91 e0       	ldi	r25, 0x01	; 1
    1f80:	83 30       	cpi	r24, 0x03	; 3
    1f82:	09 f0       	breq	.+2      	; 0x1f86 <USB_Device_ProcessControlRequest+0xd4>
    1f84:	90 e0       	ldi	r25, 0x00	; 0
    1f86:	90 93 3f 02 	sts	0x023F, r25	; 0x80023f <USB_Device_RemoteWakeupEnabled>
    1f8a:	2c c0       	rjmp	.+88     	; 0x1fe4 <USB_Device_ProcessControlRequest+0x132>
		#if !defined(CONTROL_ONLY_DEVICE)
		case REQREC_ENDPOINT:
		{
			if ((uint8_t)USB_ControlRequest.wValue == FEATURE_SEL_EndpointHalt)
			{
				uint8_t EndpointIndex = ((uint8_t)USB_ControlRequest.wIndex & ENDPOINT_EPNUM_MASK);
    1f8c:	80 91 46 02 	lds	r24, 0x0246	; 0x800246 <USB_ControlRequest+0x4>
    1f90:	8f 70       	andi	r24, 0x0F	; 15

				if (EndpointIndex == ENDPOINT_CONTROLEP || EndpointIndex >= ENDPOINT_TOTAL_ENDPOINTS)
    1f92:	9f ef       	ldi	r25, 0xFF	; 255
    1f94:	98 0f       	add	r25, r24
    1f96:	96 30       	cpi	r25, 0x06	; 6
    1f98:	08 f0       	brcs	.+2      	; 0x1f9c <USB_Device_ProcessControlRequest+0xea>
    1f9a:	df c0       	rjmp	.+446    	; 0x215a <USB_Device_ProcessControlRequest+0x2a8>
			 */
			static inline void Endpoint_SelectEndpoint(const uint8_t Address) ATTR_ALWAYS_INLINE;
			static inline void Endpoint_SelectEndpoint(const uint8_t Address)
			{
				#if !defined(CONTROL_ONLY_DEVICE)
					UENUM = (Address & ENDPOINT_EPNUM_MASK);
    1f9c:	80 93 e9 00 	sts	0x00E9, r24	; 0x8000e9 <__TEXT_REGION_LENGTH__+0x7f80e9>
			 * \return Boolean \c true if the currently selected endpoint is enabled, \c false otherwise.
			 */
			static inline bool Endpoint_IsEnabled(void) ATTR_WARN_UNUSED_RESULT ATTR_ALWAYS_INLINE;
			static inline bool Endpoint_IsEnabled(void)
			{
				return ((UECONX & (1 << EPEN)) ? true : false);
    1fa0:	90 91 eb 00 	lds	r25, 0x00EB	; 0x8000eb <__TEXT_REGION_LENGTH__+0x7f80eb>
				  return;

				Endpoint_SelectEndpoint(EndpointIndex);

				if (Endpoint_IsEnabled())
    1fa4:	90 ff       	sbrs	r25, 0
    1fa6:	1e c0       	rjmp	.+60     	; 0x1fe4 <USB_Device_ProcessControlRequest+0x132>
				{
					if (USB_ControlRequest.bRequest == REQ_SetFeature)
    1fa8:	90 91 43 02 	lds	r25, 0x0243	; 0x800243 <USB_ControlRequest+0x1>
    1fac:	93 30       	cpi	r25, 0x03	; 3
    1fae:	31 f4       	brne	.+12     	; 0x1fbc <USB_Device_ProcessControlRequest+0x10a>
			 *  \ingroup Group_EndpointPacketManagement_AVR8
			 */
			static inline void Endpoint_StallTransaction(void) ATTR_ALWAYS_INLINE;
			static inline void Endpoint_StallTransaction(void)
			{
				UECONX |= (1 << STALLRQ);
    1fb0:	eb ee       	ldi	r30, 0xEB	; 235
    1fb2:	f0 e0       	ldi	r31, 0x00	; 0
    1fb4:	80 81       	ld	r24, Z
    1fb6:	80 62       	ori	r24, 0x20	; 32
    1fb8:	80 83       	st	Z, r24
    1fba:	14 c0       	rjmp	.+40     	; 0x1fe4 <USB_Device_ProcessControlRequest+0x132>
			 *  \ingroup Group_EndpointPacketManagement_AVR8
			 */
			static inline void Endpoint_ClearStall(void) ATTR_ALWAYS_INLINE;
			static inline void Endpoint_ClearStall(void)
			{
				UECONX |= (1 << STALLRQC);
    1fbc:	eb ee       	ldi	r30, 0xEB	; 235
    1fbe:	f0 e0       	ldi	r31, 0x00	; 0
    1fc0:	90 81       	ld	r25, Z
    1fc2:	90 61       	ori	r25, 0x10	; 16
    1fc4:	90 83       	st	Z, r25
			 *  \param[in] Address  Endpoint address whose FIFO buffers are to be reset.
			 */
			static inline void Endpoint_ResetEndpoint(const uint8_t Address) ATTR_ALWAYS_INLINE;
			static inline void Endpoint_ResetEndpoint(const uint8_t Address)
			{
				UERST = (1 << (Address & ENDPOINT_EPNUM_MASK));
    1fc6:	21 e0       	ldi	r18, 0x01	; 1
    1fc8:	30 e0       	ldi	r19, 0x00	; 0
    1fca:	a9 01       	movw	r20, r18
    1fcc:	02 c0       	rjmp	.+4      	; 0x1fd2 <USB_Device_ProcessControlRequest+0x120>
    1fce:	44 0f       	add	r20, r20
    1fd0:	55 1f       	adc	r21, r21
    1fd2:	8a 95       	dec	r24
    1fd4:	e2 f7       	brpl	.-8      	; 0x1fce <USB_Device_ProcessControlRequest+0x11c>
    1fd6:	aa ee       	ldi	r26, 0xEA	; 234
    1fd8:	b0 e0       	ldi	r27, 0x00	; 0
    1fda:	4c 93       	st	X, r20
				UERST = 0;
    1fdc:	1c 92       	st	X, r1

			/** Resets the data toggle of the currently selected endpoint. */
			static inline void Endpoint_ResetDataToggle(void) ATTR_ALWAYS_INLINE;
			static inline void Endpoint_ResetDataToggle(void)
			{
				UECONX |= (1 << RSTDT);
    1fde:	80 81       	ld	r24, Z
    1fe0:	88 60       	ori	r24, 0x08	; 8
    1fe2:	80 83       	st	Z, r24
			 */
			static inline void Endpoint_SelectEndpoint(const uint8_t Address) ATTR_ALWAYS_INLINE;
			static inline void Endpoint_SelectEndpoint(const uint8_t Address)
			{
				#if !defined(CONTROL_ONLY_DEVICE)
					UENUM = (Address & ENDPOINT_EPNUM_MASK);
    1fe4:	10 92 e9 00 	sts	0x00E9, r1	; 0x8000e9 <__TEXT_REGION_LENGTH__+0x7f80e9>
			 *  \note This is not applicable for non CONTROL type endpoints.
			 */
			static inline void Endpoint_ClearSETUP(void) ATTR_ALWAYS_INLINE;
			static inline void Endpoint_ClearSETUP(void)
			{
				UEINTX &= ~(1 << RXSTPI);
    1fe8:	e8 ee       	ldi	r30, 0xE8	; 232
    1fea:	f0 e0       	ldi	r31, 0x00	; 0
    1fec:	80 81       	ld	r24, Z
    1fee:	87 7f       	andi	r24, 0xF7	; 247

	Endpoint_SelectEndpoint(ENDPOINT_CONTROLEP);

	Endpoint_ClearSETUP();

	Endpoint_ClearStatusStage();
    1ff0:	80 83       	st	Z, r24
    1ff2:	87 dd       	rcall	.-1266   	; 0x1b02 <Endpoint_ClearStatusStage>
    1ff4:	b2 c0       	rjmp	.+356    	; 0x215a <USB_Device_ProcessControlRequest+0x2a8>
					USB_Device_ClearSetFeature();
				}

				break;
			case REQ_SetAddress:
				if (bmRequestType == (REQDIR_HOSTTODEVICE | REQTYPE_STANDARD | REQREC_DEVICE))
    1ff6:	91 11       	cpse	r25, r1
    1ff8:	b0 c0       	rjmp	.+352    	; 0x215a <USB_Device_ProcessControlRequest+0x2a8>
	}
}

static void USB_Device_SetAddress(void)
{
	uint8_t DeviceAddress = (USB_ControlRequest.wValue & 0x7F);
    1ffa:	10 91 44 02 	lds	r17, 0x0244	; 0x800244 <USB_ControlRequest+0x2>
    1ffe:	1f 77       	andi	r17, 0x7F	; 127
			#endif

			static inline void USB_Device_SetDeviceAddress(const uint8_t Address) ATTR_ALWAYS_INLINE;
			static inline void USB_Device_SetDeviceAddress(const uint8_t Address)
			{
				UDADDR = (UDADDR & (1 << ADDEN)) | (Address & 0x7F);
    2000:	e3 ee       	ldi	r30, 0xE3	; 227
    2002:	f0 e0       	ldi	r31, 0x00	; 0
    2004:	80 81       	ld	r24, Z
    2006:	80 78       	andi	r24, 0x80	; 128
    2008:	81 2b       	or	r24, r17
    200a:	80 83       	st	Z, r24
    200c:	e8 ee       	ldi	r30, 0xE8	; 232
    200e:	f0 e0       	ldi	r31, 0x00	; 0
    2010:	80 81       	ld	r24, Z
    2012:	87 7f       	andi	r24, 0xF7	; 247

	USB_Device_SetDeviceAddress(DeviceAddress);

	Endpoint_ClearSETUP();

	Endpoint_ClearStatusStage();
    2014:	80 83       	st	Z, r24
    2016:	75 dd       	rcall	.-1302   	; 0x1b02 <Endpoint_ClearStatusStage>
			 *  \return Boolean \c true if the current endpoint is ready for an IN packet, \c false otherwise.
			 */
			static inline bool Endpoint_IsINReady(void) ATTR_WARN_UNUSED_RESULT ATTR_ALWAYS_INLINE;
			static inline bool Endpoint_IsINReady(void)
			{
				return ((UEINTX & (1 << TXINI)) ? true : false);
    2018:	e8 ee       	ldi	r30, 0xE8	; 232
    201a:	f0 e0       	ldi	r31, 0x00	; 0
    201c:	80 81       	ld	r24, Z

	while (!(Endpoint_IsINReady()));
    201e:	80 ff       	sbrs	r24, 0
    2020:	fd cf       	rjmp	.-6      	; 0x201c <USB_Device_ProcessControlRequest+0x16a>
			static inline void USB_Device_EnableDeviceAddress(const uint8_t Address) ATTR_ALWAYS_INLINE;
			static inline void USB_Device_EnableDeviceAddress(const uint8_t Address)
			{
				(void)Address;

				UDADDR |= (1 << ADDEN);
    2022:	e3 ee       	ldi	r30, 0xE3	; 227
    2024:	f0 e0       	ldi	r31, 0x00	; 0
    2026:	80 81       	ld	r24, Z
    2028:	80 68       	ori	r24, 0x80	; 128
    202a:	80 83       	st	Z, r24

	USB_Device_EnableDeviceAddress(DeviceAddress);

	USB_DeviceState = (DeviceAddress) ? DEVICE_STATE_Addressed : DEVICE_STATE_Default;
    202c:	11 11       	cpse	r17, r1
    202e:	02 c0       	rjmp	.+4      	; 0x2034 <USB_Device_ProcessControlRequest+0x182>
    2030:	82 e0       	ldi	r24, 0x02	; 2
    2032:	01 c0       	rjmp	.+2      	; 0x2036 <USB_Device_ProcessControlRequest+0x184>
    2034:	83 e0       	ldi	r24, 0x03	; 3
    2036:	80 93 41 02 	sts	0x0241, r24	; 0x800241 <USB_DeviceState>
    203a:	8f c0       	rjmp	.+286    	; 0x215a <USB_Device_ProcessControlRequest+0x2a8>
				if (bmRequestType == (REQDIR_HOSTTODEVICE | REQTYPE_STANDARD | REQREC_DEVICE))
				  USB_Device_SetAddress();

				break;
			case REQ_GetDescriptor:
				if ((bmRequestType == (REQDIR_DEVICETOHOST | REQTYPE_STANDARD | REQREC_DEVICE)) ||
    203c:	90 58       	subi	r25, 0x80	; 128
    203e:	92 30       	cpi	r25, 0x02	; 2
    2040:	08 f0       	brcs	.+2      	; 0x2044 <USB_Device_ProcessControlRequest+0x192>
    2042:	8b c0       	rjmp	.+278    	; 0x215a <USB_Device_ProcessControlRequest+0x2a8>
	    !(defined(USE_FLASH_DESCRIPTORS) || defined(USE_EEPROM_DESCRIPTORS) || defined(USE_RAM_DESCRIPTORS))
	uint8_t DescriptorAddressSpace;
	#endif

	#if !defined(NO_INTERNAL_SERIAL) && (USE_INTERNAL_SERIAL != NO_DESCRIPTOR)
	if (USB_ControlRequest.wValue == ((DTYPE_String << 8) | USE_INTERNAL_SERIAL))
    2044:	80 91 44 02 	lds	r24, 0x0244	; 0x800244 <USB_ControlRequest+0x2>
    2048:	90 91 45 02 	lds	r25, 0x0245	; 0x800245 <USB_ControlRequest+0x3>
    204c:	8c 3d       	cpi	r24, 0xDC	; 220
    204e:	53 e0       	ldi	r21, 0x03	; 3
    2050:	95 07       	cpc	r25, r21
    2052:	99 f5       	brne	.+102    	; 0x20ba <USB_Device_ProcessControlRequest+0x208>
	{
		USB_Descriptor_Header_t Header;
		uint16_t                UnicodeString[INTERNAL_SERIAL_LENGTH_BITS / 4];
	} SignatureDescriptor;

	SignatureDescriptor.Header.Type = DTYPE_String;
    2054:	83 e0       	ldi	r24, 0x03	; 3
    2056:	8a 83       	std	Y+2, r24	; 0x02
	SignatureDescriptor.Header.Size = USB_STRING_LEN(INTERNAL_SERIAL_LENGTH_BITS / 4);
    2058:	8a e2       	ldi	r24, 0x2A	; 42
    205a:	89 83       	std	Y+1, r24	; 0x01
			static inline uint_reg_t GetGlobalInterruptMask(void)
			{
				GCC_MEMORY_BARRIER();

				#if (ARCH == ARCH_AVR8)
				return SREG;
    205c:	5f b7       	in	r21, 0x3f	; 63
			static inline void GlobalInterruptDisable(void)
			{
				GCC_MEMORY_BARRIER();

				#if (ARCH == ARCH_AVR8)
				cli();
    205e:	f8 94       	cli
				__builtin_ssrf(AVR32_SR_GM_OFFSET);
				#elif (ARCH == ARCH_XMEGA)
				cli();
				#endif

				GCC_MEMORY_BARRIER();
    2060:	de 01       	movw	r26, r28
    2062:	13 96       	adiw	r26, 0x03	; 3
				uint_reg_t CurrentGlobalInt = GetGlobalInterruptMask();
				GlobalInterruptDisable();

				uint8_t SigReadAddress = INTERNAL_SERIAL_START_ADDRESS;

				for (uint8_t SerialCharNum = 0; SerialCharNum < (INTERNAL_SERIAL_LENGTH_BITS / 4); SerialCharNum++)
    2064:	20 e0       	ldi	r18, 0x00	; 0
			static inline void USB_Device_GetSerialString(uint16_t* const UnicodeString)
			{
				uint_reg_t CurrentGlobalInt = GetGlobalInterruptMask();
				GlobalInterruptDisable();

				uint8_t SigReadAddress = INTERNAL_SERIAL_START_ADDRESS;
    2066:	3e e0       	ldi	r19, 0x0E	; 14

				for (uint8_t SerialCharNum = 0; SerialCharNum < (INTERNAL_SERIAL_LENGTH_BITS / 4); SerialCharNum++)
				{
					uint8_t SerialByte = boot_signature_byte_get(SigReadAddress);
    2068:	41 e2       	ldi	r20, 0x21	; 33
    206a:	e3 2f       	mov	r30, r19
    206c:	f0 e0       	ldi	r31, 0x00	; 0
    206e:	40 93 57 00 	sts	0x0057, r20	; 0x800057 <__TEXT_REGION_LENGTH__+0x7f8057>
    2072:	84 91       	lpm	r24, Z

					if (SerialCharNum & 0x01)
    2074:	20 ff       	sbrs	r18, 0
    2076:	03 c0       	rjmp	.+6      	; 0x207e <USB_Device_ProcessControlRequest+0x1cc>
					{
						SerialByte >>= 4;
    2078:	82 95       	swap	r24
    207a:	8f 70       	andi	r24, 0x0F	; 15
						SigReadAddress++;
    207c:	3f 5f       	subi	r19, 0xFF	; 255
					}

					SerialByte &= 0x0F;
    207e:	8f 70       	andi	r24, 0x0F	; 15

					UnicodeString[SerialCharNum] = cpu_to_le16((SerialByte >= 10) ?
    2080:	8a 30       	cpi	r24, 0x0A	; 10
    2082:	18 f0       	brcs	.+6      	; 0x208a <USB_Device_ProcessControlRequest+0x1d8>
    2084:	90 e0       	ldi	r25, 0x00	; 0
    2086:	c7 96       	adiw	r24, 0x37	; 55
    2088:	02 c0       	rjmp	.+4      	; 0x208e <USB_Device_ProcessControlRequest+0x1dc>
    208a:	90 e0       	ldi	r25, 0x00	; 0
    208c:	c0 96       	adiw	r24, 0x30	; 48
    208e:	8d 93       	st	X+, r24
    2090:	9d 93       	st	X+, r25
				uint_reg_t CurrentGlobalInt = GetGlobalInterruptMask();
				GlobalInterruptDisable();

				uint8_t SigReadAddress = INTERNAL_SERIAL_START_ADDRESS;

				for (uint8_t SerialCharNum = 0; SerialCharNum < (INTERNAL_SERIAL_LENGTH_BITS / 4); SerialCharNum++)
    2092:	2f 5f       	subi	r18, 0xFF	; 255
    2094:	24 31       	cpi	r18, 0x14	; 20
    2096:	49 f7       	brne	.-46     	; 0x206a <USB_Device_ProcessControlRequest+0x1b8>
			static inline void SetGlobalInterruptMask(const uint_reg_t GlobalIntState)
			{
				GCC_MEMORY_BARRIER();

				#if (ARCH == ARCH_AVR8)
				SREG = GlobalIntState;
    2098:	5f bf       	out	0x3f, r21	; 63
			 *  \note This is not applicable for non CONTROL type endpoints.
			 */
			static inline void Endpoint_ClearSETUP(void) ATTR_ALWAYS_INLINE;
			static inline void Endpoint_ClearSETUP(void)
			{
				UEINTX &= ~(1 << RXSTPI);
    209a:	08 ee       	ldi	r16, 0xE8	; 232
    209c:	10 e0       	ldi	r17, 0x00	; 0
    209e:	f8 01       	movw	r30, r16
    20a0:	80 81       	ld	r24, Z
    20a2:	87 7f       	andi	r24, 0xF7	; 247
    20a4:	80 83       	st	Z, r24

	USB_Device_GetSerialString(SignatureDescriptor.UnicodeString);

	Endpoint_ClearSETUP();

	Endpoint_Write_Control_Stream_LE(&SignatureDescriptor, sizeof(SignatureDescriptor));
    20a6:	6a e2       	ldi	r22, 0x2A	; 42
    20a8:	70 e0       	ldi	r23, 0x00	; 0
    20aa:	ce 01       	movw	r24, r28
    20ac:	01 96       	adiw	r24, 0x01	; 1
    20ae:	6b db       	rcall	.-2346   	; 0x1786 <Endpoint_Write_Control_Stream_LE>
			 */
			static inline void Endpoint_ClearOUT(void) ATTR_ALWAYS_INLINE;
			static inline void Endpoint_ClearOUT(void)
			{
				#if !defined(CONTROL_ONLY_DEVICE)
					UEINTX &= ~((1 << RXOUTI) | (1 << FIFOCON));
    20b0:	f8 01       	movw	r30, r16
    20b2:	80 81       	ld	r24, Z
    20b4:	8b 77       	andi	r24, 0x7B	; 123
    20b6:	80 83       	st	Z, r24
    20b8:	50 c0       	rjmp	.+160    	; 0x215a <USB_Device_ProcessControlRequest+0x2a8>
		USB_Device_GetInternalSerialDescriptor();
		return;
	}
	#endif

	if ((DescriptorSize = CALLBACK_USB_GetDescriptor(USB_ControlRequest.wValue, USB_ControlRequest.wIndex,
    20ba:	60 91 46 02 	lds	r22, 0x0246	; 0x800246 <USB_ControlRequest+0x4>
    20be:	70 91 47 02 	lds	r23, 0x0247	; 0x800247 <USB_ControlRequest+0x5>
    20c2:	ae 01       	movw	r20, r28
    20c4:	4f 5f       	subi	r20, 0xFF	; 255
    20c6:	5f 4f       	sbci	r21, 0xFF	; 255
    20c8:	0e 94 cd 05 	call	0xb9a	; 0xb9a <CALLBACK_USB_GetDescriptor>
    20cc:	bc 01       	movw	r22, r24
    20ce:	89 2b       	or	r24, r25
    20d0:	09 f4       	brne	.+2      	; 0x20d4 <USB_Device_ProcessControlRequest+0x222>
    20d2:	43 c0       	rjmp	.+134    	; 0x215a <USB_Device_ProcessControlRequest+0x2a8>
			 *  \note This is not applicable for non CONTROL type endpoints.
			 */
			static inline void Endpoint_ClearSETUP(void) ATTR_ALWAYS_INLINE;
			static inline void Endpoint_ClearSETUP(void)
			{
				UEINTX &= ~(1 << RXSTPI);
    20d4:	08 ee       	ldi	r16, 0xE8	; 232
    20d6:	10 e0       	ldi	r17, 0x00	; 0
    20d8:	f8 01       	movw	r30, r16
    20da:	90 81       	ld	r25, Z
    20dc:	97 7f       	andi	r25, 0xF7	; 247
	#if defined(USE_RAM_DESCRIPTORS) || !defined(ARCH_HAS_MULTI_ADDRESS_SPACE)
	Endpoint_Write_Control_Stream_LE(DescriptorPointer, DescriptorSize);
	#elif defined(USE_EEPROM_DESCRIPTORS)
	Endpoint_Write_Control_EStream_LE(DescriptorPointer, DescriptorSize);
	#elif defined(USE_FLASH_DESCRIPTORS)
	Endpoint_Write_Control_PStream_LE(DescriptorPointer, DescriptorSize);
    20de:	90 83       	st	Z, r25
    20e0:	89 81       	ldd	r24, Y+1	; 0x01
    20e2:	9a 81       	ldd	r25, Y+2	; 0x02
    20e4:	d4 db       	rcall	.-2136   	; 0x188e <Endpoint_Write_Control_PStream_LE>
			 */
			static inline void Endpoint_ClearOUT(void) ATTR_ALWAYS_INLINE;
			static inline void Endpoint_ClearOUT(void)
			{
				#if !defined(CONTROL_ONLY_DEVICE)
					UEINTX &= ~((1 << RXOUTI) | (1 << FIFOCON));
    20e6:	f8 01       	movw	r30, r16
    20e8:	80 81       	ld	r24, Z
    20ea:	8b 77       	andi	r24, 0x7B	; 123
    20ec:	80 83       	st	Z, r24
    20ee:	35 c0       	rjmp	.+106    	; 0x215a <USB_Device_ProcessControlRequest+0x2a8>
					USB_Device_GetDescriptor();
				}

				break;
			case REQ_GetConfiguration:
				if (bmRequestType == (REQDIR_DEVICETOHOST | REQTYPE_STANDARD | REQREC_DEVICE))
    20f0:	90 38       	cpi	r25, 0x80	; 128
    20f2:	99 f5       	brne	.+102    	; 0x215a <USB_Device_ProcessControlRequest+0x2a8>
			 *  \note This is not applicable for non CONTROL type endpoints.
			 */
			static inline void Endpoint_ClearSETUP(void) ATTR_ALWAYS_INLINE;
			static inline void Endpoint_ClearSETUP(void)
			{
				UEINTX &= ~(1 << RXSTPI);
    20f4:	e8 ee       	ldi	r30, 0xE8	; 232
    20f6:	f0 e0       	ldi	r31, 0x00	; 0
    20f8:	80 81       	ld	r24, Z
    20fa:	87 7f       	andi	r24, 0xF7	; 247
    20fc:	80 83       	st	Z, r24

static void USB_Device_GetConfiguration(void)
{
	Endpoint_ClearSETUP();

	Endpoint_Write_8(USB_Device_ConfigurationNumber);
    20fe:	80 91 3d 02 	lds	r24, 0x023D	; 0x80023d <USB_Device_ConfigurationNumber>
			 *  \param[in] Data  Data to write into the the currently selected endpoint's FIFO buffer.
			 */
			static inline void Endpoint_Write_8(const uint8_t Data) ATTR_ALWAYS_INLINE;
			static inline void Endpoint_Write_8(const uint8_t Data)
			{
				UEDATX = Data;
    2102:	80 93 f1 00 	sts	0x00F1, r24	; 0x8000f1 <__TEXT_REGION_LENGTH__+0x7f80f1>
			 */
			static inline void Endpoint_ClearIN(void) ATTR_ALWAYS_INLINE;
			static inline void Endpoint_ClearIN(void)
			{
				#if !defined(CONTROL_ONLY_DEVICE)
					UEINTX &= ~((1 << TXINI) | (1 << FIFOCON));
    2106:	80 81       	ld	r24, Z
    2108:	8e 77       	andi	r24, 0x7E	; 126
	Endpoint_ClearIN();

	Endpoint_ClearStatusStage();
    210a:	80 83       	st	Z, r24
    210c:	fa dc       	rcall	.-1548   	; 0x1b02 <Endpoint_ClearStatusStage>
    210e:	25 c0       	rjmp	.+74     	; 0x215a <USB_Device_ProcessControlRequest+0x2a8>
				if (bmRequestType == (REQDIR_DEVICETOHOST | REQTYPE_STANDARD | REQREC_DEVICE))
				  USB_Device_GetConfiguration();

				break;
			case REQ_SetConfiguration:
				if (bmRequestType == (REQDIR_HOSTTODEVICE | REQTYPE_STANDARD | REQREC_DEVICE))
    2110:	91 11       	cpse	r25, r1
    2112:	23 c0       	rjmp	.+70     	; 0x215a <USB_Device_ProcessControlRequest+0x2a8>
}

static void USB_Device_SetConfiguration(void)
{
	#if defined(FIXED_NUM_CONFIGURATIONS)
	if ((uint8_t)USB_ControlRequest.wValue > FIXED_NUM_CONFIGURATIONS)
    2114:	80 91 44 02 	lds	r24, 0x0244	; 0x800244 <USB_ControlRequest+0x2>
    2118:	90 91 45 02 	lds	r25, 0x0245	; 0x800245 <USB_ControlRequest+0x3>
    211c:	99 27       	eor	r25, r25
    211e:	02 97       	sbiw	r24, 0x02	; 2
    2120:	e4 f4       	brge	.+56     	; 0x215a <USB_Device_ProcessControlRequest+0x2a8>
			 *  \note This is not applicable for non CONTROL type endpoints.
			 */
			static inline void Endpoint_ClearSETUP(void) ATTR_ALWAYS_INLINE;
			static inline void Endpoint_ClearSETUP(void)
			{
				UEINTX &= ~(1 << RXSTPI);
    2122:	e8 ee       	ldi	r30, 0xE8	; 232
    2124:	f0 e0       	ldi	r31, 0x00	; 0
    2126:	80 81       	ld	r24, Z
    2128:	87 7f       	andi	r24, 0xF7	; 247
	#endif
	#endif

	Endpoint_ClearSETUP();

	USB_Device_ConfigurationNumber = (uint8_t)USB_ControlRequest.wValue;
    212a:	80 83       	st	Z, r24
    212c:	80 91 44 02 	lds	r24, 0x0244	; 0x800244 <USB_ControlRequest+0x2>
    2130:	80 93 3d 02 	sts	0x023D, r24	; 0x80023d <USB_Device_ConfigurationNumber>

	Endpoint_ClearStatusStage();
    2134:	e6 dc       	rcall	.-1588   	; 0x1b02 <Endpoint_ClearStatusStage>

	if (USB_Device_ConfigurationNumber)
    2136:	80 91 3d 02 	lds	r24, 0x023D	; 0x80023d <USB_Device_ConfigurationNumber>
    213a:	88 23       	and	r24, r24
    213c:	21 f0       	breq	.+8      	; 0x2146 <USB_Device_ProcessControlRequest+0x294>
	  USB_DeviceState = DEVICE_STATE_Configured;
    213e:	84 e0       	ldi	r24, 0x04	; 4
    2140:	80 93 41 02 	sts	0x0241, r24	; 0x800241 <USB_DeviceState>
    2144:	09 c0       	rjmp	.+18     	; 0x2158 <USB_Device_ProcessControlRequest+0x2a6>
			}

			static inline bool USB_Device_IsAddressSet(void) ATTR_ALWAYS_INLINE ATTR_WARN_UNUSED_RESULT;
			static inline bool USB_Device_IsAddressSet(void)
			{
				return (UDADDR & (1 << ADDEN));
    2146:	80 91 e3 00 	lds	r24, 0x00E3	; 0x8000e3 <__TEXT_REGION_LENGTH__+0x7f80e3>
	else
	  USB_DeviceState = (USB_Device_IsAddressSet()) ? DEVICE_STATE_Configured : DEVICE_STATE_Powered;
    214a:	88 23       	and	r24, r24
    214c:	14 f0       	brlt	.+4      	; 0x2152 <USB_Device_ProcessControlRequest+0x2a0>
    214e:	81 e0       	ldi	r24, 0x01	; 1
    2150:	01 c0       	rjmp	.+2      	; 0x2154 <USB_Device_ProcessControlRequest+0x2a2>
    2152:	84 e0       	ldi	r24, 0x04	; 4
    2154:	80 93 41 02 	sts	0x0241, r24	; 0x800241 <USB_DeviceState>

	EVENT_USB_Device_ConfigurationChanged();
    2158:	97 d0       	rcall	.+302    	; 0x2288 <EVENT_USB_Device_ConfigurationChanged>
			 *  \return Boolean \c true if the selected endpoint has received a SETUP packet, \c false otherwise.
			 */
			static inline bool Endpoint_IsSETUPReceived(void) ATTR_WARN_UNUSED_RESULT ATTR_ALWAYS_INLINE;
			static inline bool Endpoint_IsSETUPReceived(void)
			{
				return ((UEINTX & (1 << RXSTPI)) ? true : false);
    215a:	80 91 e8 00 	lds	r24, 0x00E8	; 0x8000e8 <__TEXT_REGION_LENGTH__+0x7f80e8>
			default:
				break;
		}
	}

	if (Endpoint_IsSETUPReceived())
    215e:	83 ff       	sbrs	r24, 3
    2160:	16 c0       	rjmp	.+44     	; 0x218e <USB_Device_ProcessControlRequest+0x2dc>
			 *  \note This is not applicable for non CONTROL type endpoints.
			 */
			static inline void Endpoint_ClearSETUP(void) ATTR_ALWAYS_INLINE;
			static inline void Endpoint_ClearSETUP(void)
			{
				UEINTX &= ~(1 << RXSTPI);
    2162:	e8 ee       	ldi	r30, 0xE8	; 232
    2164:	f0 e0       	ldi	r31, 0x00	; 0
    2166:	80 81       	ld	r24, Z
    2168:	87 7f       	andi	r24, 0xF7	; 247
    216a:	80 83       	st	Z, r24
			 *  \ingroup Group_EndpointPacketManagement_AVR8
			 */
			static inline void Endpoint_StallTransaction(void) ATTR_ALWAYS_INLINE;
			static inline void Endpoint_StallTransaction(void)
			{
				UECONX |= (1 << STALLRQ);
    216c:	eb ee       	ldi	r30, 0xEB	; 235
    216e:	f0 e0       	ldi	r31, 0x00	; 0
    2170:	80 81       	ld	r24, Z
    2172:	80 62       	ori	r24, 0x20	; 32
    2174:	80 83       	st	Z, r24
	{
		Endpoint_ClearSETUP();
		Endpoint_StallTransaction();
	}
}
    2176:	0b c0       	rjmp	.+22     	; 0x218e <USB_Device_ProcessControlRequest+0x2dc>
	switch (USB_ControlRequest.bmRequestType & CONTROL_REQTYPE_RECIPIENT)
	{
		#if !defined(NO_DEVICE_REMOTE_WAKEUP)
		case REQREC_DEVICE:
		{
			if ((uint8_t)USB_ControlRequest.wValue == FEATURE_SEL_DeviceRemoteWakeup)
    2178:	90 91 44 02 	lds	r25, 0x0244	; 0x800244 <USB_ControlRequest+0x2>
    217c:	91 30       	cpi	r25, 0x01	; 1
    217e:	69 f7       	brne	.-38     	; 0x215a <USB_Device_ProcessControlRequest+0x2a8>
    2180:	fe ce       	rjmp	.-516    	; 0x1f7e <USB_Device_ProcessControlRequest+0xcc>
		}
		#endif
		#if !defined(CONTROL_ONLY_DEVICE)
		case REQREC_ENDPOINT:
		{
			if ((uint8_t)USB_ControlRequest.wValue == FEATURE_SEL_EndpointHalt)
    2182:	80 91 44 02 	lds	r24, 0x0244	; 0x800244 <USB_ControlRequest+0x2>
    2186:	88 23       	and	r24, r24
    2188:	09 f4       	brne	.+2      	; 0x218c <USB_Device_ProcessControlRequest+0x2da>
    218a:	00 cf       	rjmp	.-512    	; 0x1f8c <USB_Device_ProcessControlRequest+0xda>
    218c:	2b cf       	rjmp	.-426    	; 0x1fe4 <USB_Device_ProcessControlRequest+0x132>
	if (Endpoint_IsSETUPReceived())
	{
		Endpoint_ClearSETUP();
		Endpoint_StallTransaction();
	}
}
    218e:	aa 96       	adiw	r28, 0x2a	; 42
    2190:	0f b6       	in	r0, 0x3f	; 63
    2192:	f8 94       	cli
    2194:	de bf       	out	0x3e, r29	; 62
    2196:	0f be       	out	0x3f, r0	; 63
    2198:	cd bf       	out	0x3d, r28	; 61
    219a:	df 91       	pop	r29
    219c:	cf 91       	pop	r28
    219e:	1f 91       	pop	r17
    21a0:	0f 91       	pop	r16
    21a2:	08 95       	ret

000021a4 <USB_Event_Stub>:
#define  __INCLUDE_FROM_EVENTS_C
#define  __INCLUDE_FROM_USB_DRIVER
#include "Events.h"

void USB_Event_Stub(void)
{
    21a4:	08 95       	ret

000021a6 <USB_USBTask>:
#if defined(USB_CAN_BE_DEVICE) && !defined(DEVICE_STATE_AS_GPIOR)
volatile uint8_t     USB_DeviceState;
#endif

void USB_USBTask(void)
{
    21a6:	cf 93       	push	r28
}

#if defined(USB_CAN_BE_DEVICE)
static void USB_DeviceTask(void)
{
	if (USB_DeviceState == DEVICE_STATE_Unattached)
    21a8:	80 91 41 02 	lds	r24, 0x0241	; 0x800241 <USB_DeviceState>
    21ac:	88 23       	and	r24, r24
    21ae:	99 f0       	breq	.+38     	; 0x21d6 <USB_USBTask+0x30>
			 */
			static inline uint8_t Endpoint_GetCurrentEndpoint(void) ATTR_WARN_UNUSED_RESULT ATTR_ALWAYS_INLINE;
			static inline uint8_t Endpoint_GetCurrentEndpoint(void)
			{
				#if !defined(CONTROL_ONLY_DEVICE)
					return ((UENUM & ENDPOINT_EPNUM_MASK) | Endpoint_GetEndpointDirection());
    21b0:	c0 91 e9 00 	lds	r28, 0x00E9	; 0x8000e9 <__TEXT_REGION_LENGTH__+0x7f80e9>
    21b4:	cf 70       	andi	r28, 0x0F	; 15
			 *  \return The currently selected endpoint's direction, as a \c ENDPOINT_DIR_* mask.
			 */
			static inline uint8_t Endpoint_GetEndpointDirection(void) ATTR_WARN_UNUSED_RESULT ATTR_ALWAYS_INLINE;
			static inline uint8_t Endpoint_GetEndpointDirection(void)
			{
				return (UECFG0X & (1 << EPDIR)) ? ENDPOINT_DIR_IN : ENDPOINT_DIR_OUT;
    21b6:	80 91 ec 00 	lds	r24, 0x00EC	; 0x8000ec <__TEXT_REGION_LENGTH__+0x7f80ec>
    21ba:	98 2f       	mov	r25, r24
    21bc:	91 70       	andi	r25, 0x01	; 1
    21be:	80 fd       	sbrc	r24, 0
    21c0:	90 e8       	ldi	r25, 0x80	; 128
			 */
			static inline uint8_t Endpoint_GetCurrentEndpoint(void) ATTR_WARN_UNUSED_RESULT ATTR_ALWAYS_INLINE;
			static inline uint8_t Endpoint_GetCurrentEndpoint(void)
			{
				#if !defined(CONTROL_ONLY_DEVICE)
					return ((UENUM & ENDPOINT_EPNUM_MASK) | Endpoint_GetEndpointDirection());
    21c2:	c9 2b       	or	r28, r25
			 */
			static inline void Endpoint_SelectEndpoint(const uint8_t Address) ATTR_ALWAYS_INLINE;
			static inline void Endpoint_SelectEndpoint(const uint8_t Address)
			{
				#if !defined(CONTROL_ONLY_DEVICE)
					UENUM = (Address & ENDPOINT_EPNUM_MASK);
    21c4:	10 92 e9 00 	sts	0x00E9, r1	; 0x8000e9 <__TEXT_REGION_LENGTH__+0x7f80e9>
			 *  \return Boolean \c true if the selected endpoint has received a SETUP packet, \c false otherwise.
			 */
			static inline bool Endpoint_IsSETUPReceived(void) ATTR_WARN_UNUSED_RESULT ATTR_ALWAYS_INLINE;
			static inline bool Endpoint_IsSETUPReceived(void)
			{
				return ((UEINTX & (1 << RXSTPI)) ? true : false);
    21c8:	80 91 e8 00 	lds	r24, 0x00E8	; 0x8000e8 <__TEXT_REGION_LENGTH__+0x7f80e8>

	uint8_t PrevEndpoint = Endpoint_GetCurrentEndpoint();

	Endpoint_SelectEndpoint(ENDPOINT_CONTROLEP);

	if (Endpoint_IsSETUPReceived())
    21cc:	83 fd       	sbrc	r24, 3
	  USB_Device_ProcessControlRequest();
    21ce:	71 de       	rcall	.-798    	; 0x1eb2 <USB_Device_ProcessControlRequest>
			 */
			static inline void Endpoint_SelectEndpoint(const uint8_t Address) ATTR_ALWAYS_INLINE;
			static inline void Endpoint_SelectEndpoint(const uint8_t Address)
			{
				#if !defined(CONTROL_ONLY_DEVICE)
					UENUM = (Address & ENDPOINT_EPNUM_MASK);
    21d0:	cf 70       	andi	r28, 0x0F	; 15
    21d2:	c0 93 e9 00 	sts	0x00E9, r28	; 0x8000e9 <__TEXT_REGION_LENGTH__+0x7f80e9>
	#elif defined(USB_CAN_BE_HOST)
		USB_HostTask();
	#elif defined(USB_CAN_BE_DEVICE)
		USB_DeviceTask();
	#endif
}
    21d6:	cf 91       	pop	r28
    21d8:	08 95       	ret

000021da <main>:


int main (void) {


	testCounter = 0;
    21da:	10 92 ff 01 	sts	0x01FF, r1	; 0x8001ff <testCounter+0x1>
    21de:	10 92 fe 01 	sts	0x01FE, r1	; 0x8001fe <testCounter>
	driveState = DRV_STATE_RDY;
    21e2:	10 92 35 02 	sts	0x0235, r1	; 0x800235 <driveState>
	
	/* Disable watchdog if enabled by bootloader/fuses */
	MCUSR &= ~(1 << WDRF);
    21e6:	84 b7       	in	r24, 0x34	; 52
    21e8:	87 7f       	andi	r24, 0xF7	; 247
    21ea:	84 bf       	out	0x34, r24	; 52
		);
	}
	else
	{
        uint8_t register temp_reg;
		__asm__ __volatile__ (
    21ec:	0f b6       	in	r0, 0x3f	; 63
    21ee:	f8 94       	cli
    21f0:	a8 95       	wdr
    21f2:	80 91 60 00 	lds	r24, 0x0060	; 0x800060 <__TEXT_REGION_LENGTH__+0x7f8060>
    21f6:	88 61       	ori	r24, 0x18	; 24
    21f8:	80 93 60 00 	sts	0x0060, r24	; 0x800060 <__TEXT_REGION_LENGTH__+0x7f8060>
    21fc:	10 92 60 00 	sts	0x0060, r1	; 0x800060 <__TEXT_REGION_LENGTH__+0x7f8060>
    2200:	0f be       	out	0x3f, r0	; 63
from 1 to 129. Thus, one does not need to use \c clock_div_t type as argument.
*/
void clock_prescale_set(clock_div_t __x)
{
    uint8_t __tmp = _BV(CLKPCE);
    __asm__ __volatile__ (
    2202:	90 e0       	ldi	r25, 0x00	; 0
    2204:	80 e8       	ldi	r24, 0x80	; 128
    2206:	0f b6       	in	r0, 0x3f	; 63
    2208:	f8 94       	cli
    220a:	80 93 61 00 	sts	0x0061, r24	; 0x800061 <__TEXT_REGION_LENGTH__+0x7f8061>
    220e:	90 93 61 00 	sts	0x0061, r25	; 0x800061 <__TEXT_REGION_LENGTH__+0x7f8061>
    2212:	0f be       	out	0x3f, r0	; 63
	wdt_disable();
	
	/* Disable clock division */
	clock_prescale_set(clock_div_1);
	USB_Init();
    2214:	1b dd       	rcall	.-1482   	; 0x1c4c <USB_Init>
			static inline void GlobalInterruptEnable(void)
			{
				GCC_MEMORY_BARRIER();

				#if (ARCH == ARCH_AVR8)
				sei();
    2216:	78 94       	sei

	GlobalInterruptEnable();
	
	
	DDRB |= (1 << 0);
    2218:	20 9a       	sbi	0x04, 0	; 4
	DDRD |= (1 << 5);
    221a:	55 9a       	sbi	0x0a, 5	; 10
	
	PORTB |= (1<<0);    //Bit setzen, LED AUS
    221c:	28 9a       	sbi	0x05, 0	; 5
	//PORTD |= (1<<5);    //Bit setzen, LED AUS
	PORTD &= ~(1<<5);    //Bit setzen, LED AN
    221e:	5d 98       	cbi	0x0b, 5	; 11
		                                         const uint16_t Size) ATTR_NON_NULL_PTR_ARG(1) ATTR_NON_NULL_PTR_ARG(2);
		static inline void RingBuffer_InitBuffer(RingBuffer_t* Buffer,
		                                         uint8_t* const DataPtr,
		                                         const uint16_t Size)
		{
			GCC_FORCE_POINTER_ACCESS(Buffer);
    2220:	ee ee       	ldi	r30, 0xEE	; 238
    2222:	f1 e0       	ldi	r31, 0x01	; 1
			static inline uint_reg_t GetGlobalInterruptMask(void)
			{
				GCC_MEMORY_BARRIER();

				#if (ARCH == ARCH_AVR8)
				return SREG;
    2224:	2f b7       	in	r18, 0x3f	; 63
			static inline void GlobalInterruptDisable(void)
			{
				GCC_MEMORY_BARRIER();

				#if (ARCH == ARCH_AVR8)
				cli();
    2226:	f8 94       	cli

			uint_reg_t CurrentGlobalInt = GetGlobalInterruptMask();
			GlobalInterruptDisable();

			Buffer->In     = DataPtr;
    2228:	8e e6       	ldi	r24, 0x6E	; 110
    222a:	91 e0       	ldi	r25, 0x01	; 1
    222c:	91 83       	std	Z+1, r25	; 0x01
    222e:	80 83       	st	Z, r24
			Buffer->Out    = DataPtr;
    2230:	93 83       	std	Z+3, r25	; 0x03
    2232:	82 83       	std	Z+2, r24	; 0x02
			Buffer->Start  = &DataPtr[0];
    2234:	95 83       	std	Z+5, r25	; 0x05
    2236:	84 83       	std	Z+4, r24	; 0x04
			Buffer->End    = &DataPtr[Size];
    2238:	8e ee       	ldi	r24, 0xEE	; 238
    223a:	91 e0       	ldi	r25, 0x01	; 1
    223c:	97 83       	std	Z+7, r25	; 0x07
    223e:	86 83       	std	Z+6, r24	; 0x06
			Buffer->Size   = Size;
    2240:	80 e8       	ldi	r24, 0x80	; 128
    2242:	90 e0       	ldi	r25, 0x00	; 0
    2244:	91 87       	std	Z+9, r25	; 0x09
    2246:	80 87       	std	Z+8, r24	; 0x08
			Buffer->Count  = 0;
    2248:	13 86       	std	Z+11, r1	; 0x0b
    224a:	12 86       	std	Z+10, r1	; 0x0a
			static inline void SetGlobalInterruptMask(const uint_reg_t GlobalIntState)
			{
				GCC_MEMORY_BARRIER();

				#if (ARCH == ARCH_AVR8)
				SREG = GlobalIntState;
    224c:	2f bf       	out	0x3f, r18	; 63
	
	// Initialize the buffer with the created storage array
	RingBuffer_InitBuffer(&RxBuffer, RxBufferData, RX_BUFFER_LEN);
	
	stepper_a_init();
    224e:	0e 94 e6 07 	call	0xfcc	; 0xfcc <stepper_a_init>
		}
		//fputs((char*)&testCounter, &USBSerialStream);
		*/
		
		
		stepper_a_loop(&VirtualSerial_CDC_Interface);
    2252:	80 e0       	ldi	r24, 0x00	; 0
    2254:	91 e0       	ldi	r25, 0x01	; 1
    2256:	0e 94 d2 08 	call	0x11a4	; 0x11a4 <stepper_a_loop>


		putCDCtoBuffer(&VirtualSerial_CDC_Interface, &RxBuffer);
    225a:	6e ee       	ldi	r22, 0xEE	; 238
    225c:	71 e0       	ldi	r23, 0x01	; 1
    225e:	80 e0       	ldi	r24, 0x00	; 0
    2260:	91 e0       	ldi	r25, 0x01	; 1
    2262:	0e 94 e2 00 	call	0x1c4	; 0x1c4 <putCDCtoBuffer>
		checkBufferForCommands(&VirtualSerial_CDC_Interface, &RxBuffer);
    2266:	6e ee       	ldi	r22, 0xEE	; 238
    2268:	71 e0       	ldi	r23, 0x01	; 1
    226a:	80 e0       	ldi	r24, 0x00	; 0
    226c:	91 e0       	ldi	r25, 0x01	; 1
    226e:	0e 94 11 01 	call	0x222	; 0x222 <checkBufferForCommands>
			}
			commandState = CMD_STATE_EXECUTED;
		}
		*/
		
		handleCommands(&VirtualSerial_CDC_Interface);
    2272:	80 e0       	ldi	r24, 0x00	; 0
    2274:	91 e0       	ldi	r25, 0x01	; 1
    2276:	0e 94 71 01 	call	0x2e2	; 0x2e2 <handleCommands>
		CDC_Device_USBTask(&VirtualSerial_CDC_Interface);
    227a:	80 e0       	ldi	r24, 0x00	; 0
    227c:	91 e0       	ldi	r25, 0x01	; 1
		USB_USBTask();
    227e:	2e d9       	rcall	.-3492   	; 0x14dc <CDC_Device_USBTask>
    2280:	92 df       	rcall	.-220    	; 0x21a6 <USB_USBTask>
    2282:	e7 cf       	rjmp	.-50     	; 0x2252 <main+0x78>

00002284 <EVENT_USB_Device_Connect>:



/** Event handler for the library USB Connection event. */
void EVENT_USB_Device_Connect(void)
{
    2284:	08 95       	ret

00002286 <EVENT_USB_Device_Disconnect>:
	//LEDs_SetAllLEDs(LEDMASK_USB_ENUMERATING);
}

/** Event handler for the library USB Disconnection event. */
void EVENT_USB_Device_Disconnect(void)
{
    2286:	08 95       	ret

00002288 <EVENT_USB_Device_ConfigurationChanged>:
/** Event handler for the library USB Configuration Changed event. */
void EVENT_USB_Device_ConfigurationChanged(void)
{
	bool ConfigSuccess = true;

	ConfigSuccess &= CDC_Device_ConfigureEndpoints(&VirtualSerial_CDC_Interface);
    2288:	80 e0       	ldi	r24, 0x00	; 0
    228a:	91 e0       	ldi	r25, 0x01	; 1
    228c:	89 c8       	rjmp	.-3822   	; 0x13a0 <CDC_Device_ConfigureEndpoints>
    228e:	08 95       	ret

00002290 <EVENT_USB_Device_ControlRequest>:


/** Event handler for the library USB Control Request reception event. */
void EVENT_USB_Device_ControlRequest(void)
{
	CDC_Device_ProcessControlRequest(&VirtualSerial_CDC_Interface);
    2290:	80 e0       	ldi	r24, 0x00	; 0
    2292:	91 e0       	ldi	r25, 0x01	; 1
    2294:	7c c9       	rjmp	.-3336   	; 0x158e <CDC_Device_ProcessControlRequest>
    2296:	08 95       	ret

00002298 <EVENT_CDC_Device_ControLineStateChanged>:
*  control lines sent from the host..
*
*  \param[in] CDCInterfaceInfo  Pointer to the CDC class interface configuration structure being referenced
*/
void EVENT_CDC_Device_ControLineStateChanged(USB_ClassInfo_CDC_Device_t *const CDCInterfaceInfo)
{
    2298:	08 95       	ret

0000229a <__subsf3>:
    229a:	50 58       	subi	r21, 0x80	; 128

0000229c <__addsf3>:
    229c:	bb 27       	eor	r27, r27
    229e:	aa 27       	eor	r26, r26
    22a0:	0e d0       	rcall	.+28     	; 0x22be <__addsf3x>
    22a2:	75 c1       	rjmp	.+746    	; 0x258e <__fp_round>
    22a4:	66 d1       	rcall	.+716    	; 0x2572 <__fp_pscA>
    22a6:	30 f0       	brcs	.+12     	; 0x22b4 <__addsf3+0x18>
    22a8:	6b d1       	rcall	.+726    	; 0x2580 <__fp_pscB>
    22aa:	20 f0       	brcs	.+8      	; 0x22b4 <__addsf3+0x18>
    22ac:	31 f4       	brne	.+12     	; 0x22ba <__addsf3+0x1e>
    22ae:	9f 3f       	cpi	r25, 0xFF	; 255
    22b0:	11 f4       	brne	.+4      	; 0x22b6 <__addsf3+0x1a>
    22b2:	1e f4       	brtc	.+6      	; 0x22ba <__addsf3+0x1e>
    22b4:	5b c1       	rjmp	.+694    	; 0x256c <__fp_nan>
    22b6:	0e f4       	brtc	.+2      	; 0x22ba <__addsf3+0x1e>
    22b8:	e0 95       	com	r30
    22ba:	e7 fb       	bst	r30, 7
    22bc:	51 c1       	rjmp	.+674    	; 0x2560 <__fp_inf>

000022be <__addsf3x>:
    22be:	e9 2f       	mov	r30, r25
    22c0:	77 d1       	rcall	.+750    	; 0x25b0 <__fp_split3>
    22c2:	80 f3       	brcs	.-32     	; 0x22a4 <__addsf3+0x8>
    22c4:	ba 17       	cp	r27, r26
    22c6:	62 07       	cpc	r22, r18
    22c8:	73 07       	cpc	r23, r19
    22ca:	84 07       	cpc	r24, r20
    22cc:	95 07       	cpc	r25, r21
    22ce:	18 f0       	brcs	.+6      	; 0x22d6 <__addsf3x+0x18>
    22d0:	71 f4       	brne	.+28     	; 0x22ee <__addsf3x+0x30>
    22d2:	9e f5       	brtc	.+102    	; 0x233a <__addsf3x+0x7c>
    22d4:	8f c1       	rjmp	.+798    	; 0x25f4 <__fp_zero>
    22d6:	0e f4       	brtc	.+2      	; 0x22da <__addsf3x+0x1c>
    22d8:	e0 95       	com	r30
    22da:	0b 2e       	mov	r0, r27
    22dc:	ba 2f       	mov	r27, r26
    22de:	a0 2d       	mov	r26, r0
    22e0:	0b 01       	movw	r0, r22
    22e2:	b9 01       	movw	r22, r18
    22e4:	90 01       	movw	r18, r0
    22e6:	0c 01       	movw	r0, r24
    22e8:	ca 01       	movw	r24, r20
    22ea:	a0 01       	movw	r20, r0
    22ec:	11 24       	eor	r1, r1
    22ee:	ff 27       	eor	r31, r31
    22f0:	59 1b       	sub	r21, r25
    22f2:	99 f0       	breq	.+38     	; 0x231a <__addsf3x+0x5c>
    22f4:	59 3f       	cpi	r21, 0xF9	; 249
    22f6:	50 f4       	brcc	.+20     	; 0x230c <__addsf3x+0x4e>
    22f8:	50 3e       	cpi	r21, 0xE0	; 224
    22fa:	68 f1       	brcs	.+90     	; 0x2356 <__addsf3x+0x98>
    22fc:	1a 16       	cp	r1, r26
    22fe:	f0 40       	sbci	r31, 0x00	; 0
    2300:	a2 2f       	mov	r26, r18
    2302:	23 2f       	mov	r18, r19
    2304:	34 2f       	mov	r19, r20
    2306:	44 27       	eor	r20, r20
    2308:	58 5f       	subi	r21, 0xF8	; 248
    230a:	f3 cf       	rjmp	.-26     	; 0x22f2 <__addsf3x+0x34>
    230c:	46 95       	lsr	r20
    230e:	37 95       	ror	r19
    2310:	27 95       	ror	r18
    2312:	a7 95       	ror	r26
    2314:	f0 40       	sbci	r31, 0x00	; 0
    2316:	53 95       	inc	r21
    2318:	c9 f7       	brne	.-14     	; 0x230c <__addsf3x+0x4e>
    231a:	7e f4       	brtc	.+30     	; 0x233a <__addsf3x+0x7c>
    231c:	1f 16       	cp	r1, r31
    231e:	ba 0b       	sbc	r27, r26
    2320:	62 0b       	sbc	r22, r18
    2322:	73 0b       	sbc	r23, r19
    2324:	84 0b       	sbc	r24, r20
    2326:	ba f0       	brmi	.+46     	; 0x2356 <__addsf3x+0x98>
    2328:	91 50       	subi	r25, 0x01	; 1
    232a:	a1 f0       	breq	.+40     	; 0x2354 <__addsf3x+0x96>
    232c:	ff 0f       	add	r31, r31
    232e:	bb 1f       	adc	r27, r27
    2330:	66 1f       	adc	r22, r22
    2332:	77 1f       	adc	r23, r23
    2334:	88 1f       	adc	r24, r24
    2336:	c2 f7       	brpl	.-16     	; 0x2328 <__addsf3x+0x6a>
    2338:	0e c0       	rjmp	.+28     	; 0x2356 <__addsf3x+0x98>
    233a:	ba 0f       	add	r27, r26
    233c:	62 1f       	adc	r22, r18
    233e:	73 1f       	adc	r23, r19
    2340:	84 1f       	adc	r24, r20
    2342:	48 f4       	brcc	.+18     	; 0x2356 <__addsf3x+0x98>
    2344:	87 95       	ror	r24
    2346:	77 95       	ror	r23
    2348:	67 95       	ror	r22
    234a:	b7 95       	ror	r27
    234c:	f7 95       	ror	r31
    234e:	9e 3f       	cpi	r25, 0xFE	; 254
    2350:	08 f0       	brcs	.+2      	; 0x2354 <__addsf3x+0x96>
    2352:	b3 cf       	rjmp	.-154    	; 0x22ba <__addsf3+0x1e>
    2354:	93 95       	inc	r25
    2356:	88 0f       	add	r24, r24
    2358:	08 f0       	brcs	.+2      	; 0x235c <__addsf3x+0x9e>
    235a:	99 27       	eor	r25, r25
    235c:	ee 0f       	add	r30, r30
    235e:	97 95       	ror	r25
    2360:	87 95       	ror	r24
    2362:	08 95       	ret

00002364 <__cmpsf2>:
    2364:	d9 d0       	rcall	.+434    	; 0x2518 <__fp_cmp>
    2366:	08 f4       	brcc	.+2      	; 0x236a <__cmpsf2+0x6>
    2368:	81 e0       	ldi	r24, 0x01	; 1
    236a:	08 95       	ret

0000236c <__divsf3>:
    236c:	0c d0       	rcall	.+24     	; 0x2386 <__divsf3x>
    236e:	0f c1       	rjmp	.+542    	; 0x258e <__fp_round>
    2370:	07 d1       	rcall	.+526    	; 0x2580 <__fp_pscB>
    2372:	40 f0       	brcs	.+16     	; 0x2384 <__divsf3+0x18>
    2374:	fe d0       	rcall	.+508    	; 0x2572 <__fp_pscA>
    2376:	30 f0       	brcs	.+12     	; 0x2384 <__divsf3+0x18>
    2378:	21 f4       	brne	.+8      	; 0x2382 <__divsf3+0x16>
    237a:	5f 3f       	cpi	r21, 0xFF	; 255
    237c:	19 f0       	breq	.+6      	; 0x2384 <__divsf3+0x18>
    237e:	f0 c0       	rjmp	.+480    	; 0x2560 <__fp_inf>
    2380:	51 11       	cpse	r21, r1
    2382:	39 c1       	rjmp	.+626    	; 0x25f6 <__fp_szero>
    2384:	f3 c0       	rjmp	.+486    	; 0x256c <__fp_nan>

00002386 <__divsf3x>:
    2386:	14 d1       	rcall	.+552    	; 0x25b0 <__fp_split3>
    2388:	98 f3       	brcs	.-26     	; 0x2370 <__divsf3+0x4>

0000238a <__divsf3_pse>:
    238a:	99 23       	and	r25, r25
    238c:	c9 f3       	breq	.-14     	; 0x2380 <__divsf3+0x14>
    238e:	55 23       	and	r21, r21
    2390:	b1 f3       	breq	.-20     	; 0x237e <__divsf3+0x12>
    2392:	95 1b       	sub	r25, r21
    2394:	55 0b       	sbc	r21, r21
    2396:	bb 27       	eor	r27, r27
    2398:	aa 27       	eor	r26, r26
    239a:	62 17       	cp	r22, r18
    239c:	73 07       	cpc	r23, r19
    239e:	84 07       	cpc	r24, r20
    23a0:	38 f0       	brcs	.+14     	; 0x23b0 <__divsf3_pse+0x26>
    23a2:	9f 5f       	subi	r25, 0xFF	; 255
    23a4:	5f 4f       	sbci	r21, 0xFF	; 255
    23a6:	22 0f       	add	r18, r18
    23a8:	33 1f       	adc	r19, r19
    23aa:	44 1f       	adc	r20, r20
    23ac:	aa 1f       	adc	r26, r26
    23ae:	a9 f3       	breq	.-22     	; 0x239a <__divsf3_pse+0x10>
    23b0:	33 d0       	rcall	.+102    	; 0x2418 <__divsf3_pse+0x8e>
    23b2:	0e 2e       	mov	r0, r30
    23b4:	3a f0       	brmi	.+14     	; 0x23c4 <__divsf3_pse+0x3a>
    23b6:	e0 e8       	ldi	r30, 0x80	; 128
    23b8:	30 d0       	rcall	.+96     	; 0x241a <__divsf3_pse+0x90>
    23ba:	91 50       	subi	r25, 0x01	; 1
    23bc:	50 40       	sbci	r21, 0x00	; 0
    23be:	e6 95       	lsr	r30
    23c0:	00 1c       	adc	r0, r0
    23c2:	ca f7       	brpl	.-14     	; 0x23b6 <__divsf3_pse+0x2c>
    23c4:	29 d0       	rcall	.+82     	; 0x2418 <__divsf3_pse+0x8e>
    23c6:	fe 2f       	mov	r31, r30
    23c8:	27 d0       	rcall	.+78     	; 0x2418 <__divsf3_pse+0x8e>
    23ca:	66 0f       	add	r22, r22
    23cc:	77 1f       	adc	r23, r23
    23ce:	88 1f       	adc	r24, r24
    23d0:	bb 1f       	adc	r27, r27
    23d2:	26 17       	cp	r18, r22
    23d4:	37 07       	cpc	r19, r23
    23d6:	48 07       	cpc	r20, r24
    23d8:	ab 07       	cpc	r26, r27
    23da:	b0 e8       	ldi	r27, 0x80	; 128
    23dc:	09 f0       	breq	.+2      	; 0x23e0 <__divsf3_pse+0x56>
    23de:	bb 0b       	sbc	r27, r27
    23e0:	80 2d       	mov	r24, r0
    23e2:	bf 01       	movw	r22, r30
    23e4:	ff 27       	eor	r31, r31
    23e6:	93 58       	subi	r25, 0x83	; 131
    23e8:	5f 4f       	sbci	r21, 0xFF	; 255
    23ea:	2a f0       	brmi	.+10     	; 0x23f6 <__divsf3_pse+0x6c>
    23ec:	9e 3f       	cpi	r25, 0xFE	; 254
    23ee:	51 05       	cpc	r21, r1
    23f0:	68 f0       	brcs	.+26     	; 0x240c <__divsf3_pse+0x82>
    23f2:	b6 c0       	rjmp	.+364    	; 0x2560 <__fp_inf>
    23f4:	00 c1       	rjmp	.+512    	; 0x25f6 <__fp_szero>
    23f6:	5f 3f       	cpi	r21, 0xFF	; 255
    23f8:	ec f3       	brlt	.-6      	; 0x23f4 <__divsf3_pse+0x6a>
    23fa:	98 3e       	cpi	r25, 0xE8	; 232
    23fc:	dc f3       	brlt	.-10     	; 0x23f4 <__divsf3_pse+0x6a>
    23fe:	86 95       	lsr	r24
    2400:	77 95       	ror	r23
    2402:	67 95       	ror	r22
    2404:	b7 95       	ror	r27
    2406:	f7 95       	ror	r31
    2408:	9f 5f       	subi	r25, 0xFF	; 255
    240a:	c9 f7       	brne	.-14     	; 0x23fe <__divsf3_pse+0x74>
    240c:	88 0f       	add	r24, r24
    240e:	91 1d       	adc	r25, r1
    2410:	96 95       	lsr	r25
    2412:	87 95       	ror	r24
    2414:	97 f9       	bld	r25, 7
    2416:	08 95       	ret
    2418:	e1 e0       	ldi	r30, 0x01	; 1
    241a:	66 0f       	add	r22, r22
    241c:	77 1f       	adc	r23, r23
    241e:	88 1f       	adc	r24, r24
    2420:	bb 1f       	adc	r27, r27
    2422:	62 17       	cp	r22, r18
    2424:	73 07       	cpc	r23, r19
    2426:	84 07       	cpc	r24, r20
    2428:	ba 07       	cpc	r27, r26
    242a:	20 f0       	brcs	.+8      	; 0x2434 <__divsf3_pse+0xaa>
    242c:	62 1b       	sub	r22, r18
    242e:	73 0b       	sbc	r23, r19
    2430:	84 0b       	sbc	r24, r20
    2432:	ba 0b       	sbc	r27, r26
    2434:	ee 1f       	adc	r30, r30
    2436:	88 f7       	brcc	.-30     	; 0x241a <__divsf3_pse+0x90>
    2438:	e0 95       	com	r30
    243a:	08 95       	ret

0000243c <__fixsfsi>:
    243c:	04 d0       	rcall	.+8      	; 0x2446 <__fixunssfsi>
    243e:	68 94       	set
    2440:	b1 11       	cpse	r27, r1
    2442:	d9 c0       	rjmp	.+434    	; 0x25f6 <__fp_szero>
    2444:	08 95       	ret

00002446 <__fixunssfsi>:
    2446:	bc d0       	rcall	.+376    	; 0x25c0 <__fp_splitA>
    2448:	88 f0       	brcs	.+34     	; 0x246c <__fixunssfsi+0x26>
    244a:	9f 57       	subi	r25, 0x7F	; 127
    244c:	90 f0       	brcs	.+36     	; 0x2472 <__fixunssfsi+0x2c>
    244e:	b9 2f       	mov	r27, r25
    2450:	99 27       	eor	r25, r25
    2452:	b7 51       	subi	r27, 0x17	; 23
    2454:	a0 f0       	brcs	.+40     	; 0x247e <__fixunssfsi+0x38>
    2456:	d1 f0       	breq	.+52     	; 0x248c <__fixunssfsi+0x46>
    2458:	66 0f       	add	r22, r22
    245a:	77 1f       	adc	r23, r23
    245c:	88 1f       	adc	r24, r24
    245e:	99 1f       	adc	r25, r25
    2460:	1a f0       	brmi	.+6      	; 0x2468 <__fixunssfsi+0x22>
    2462:	ba 95       	dec	r27
    2464:	c9 f7       	brne	.-14     	; 0x2458 <__fixunssfsi+0x12>
    2466:	12 c0       	rjmp	.+36     	; 0x248c <__fixunssfsi+0x46>
    2468:	b1 30       	cpi	r27, 0x01	; 1
    246a:	81 f0       	breq	.+32     	; 0x248c <__fixunssfsi+0x46>
    246c:	c3 d0       	rcall	.+390    	; 0x25f4 <__fp_zero>
    246e:	b1 e0       	ldi	r27, 0x01	; 1
    2470:	08 95       	ret
    2472:	c0 c0       	rjmp	.+384    	; 0x25f4 <__fp_zero>
    2474:	67 2f       	mov	r22, r23
    2476:	78 2f       	mov	r23, r24
    2478:	88 27       	eor	r24, r24
    247a:	b8 5f       	subi	r27, 0xF8	; 248
    247c:	39 f0       	breq	.+14     	; 0x248c <__fixunssfsi+0x46>
    247e:	b9 3f       	cpi	r27, 0xF9	; 249
    2480:	cc f3       	brlt	.-14     	; 0x2474 <__fixunssfsi+0x2e>
    2482:	86 95       	lsr	r24
    2484:	77 95       	ror	r23
    2486:	67 95       	ror	r22
    2488:	b3 95       	inc	r27
    248a:	d9 f7       	brne	.-10     	; 0x2482 <__fixunssfsi+0x3c>
    248c:	3e f4       	brtc	.+14     	; 0x249c <__fixunssfsi+0x56>
    248e:	90 95       	com	r25
    2490:	80 95       	com	r24
    2492:	70 95       	com	r23
    2494:	61 95       	neg	r22
    2496:	7f 4f       	sbci	r23, 0xFF	; 255
    2498:	8f 4f       	sbci	r24, 0xFF	; 255
    249a:	9f 4f       	sbci	r25, 0xFF	; 255
    249c:	08 95       	ret

0000249e <__floatunsisf>:
    249e:	e8 94       	clt
    24a0:	09 c0       	rjmp	.+18     	; 0x24b4 <__floatsisf+0x12>

000024a2 <__floatsisf>:
    24a2:	97 fb       	bst	r25, 7
    24a4:	3e f4       	brtc	.+14     	; 0x24b4 <__floatsisf+0x12>
    24a6:	90 95       	com	r25
    24a8:	80 95       	com	r24
    24aa:	70 95       	com	r23
    24ac:	61 95       	neg	r22
    24ae:	7f 4f       	sbci	r23, 0xFF	; 255
    24b0:	8f 4f       	sbci	r24, 0xFF	; 255
    24b2:	9f 4f       	sbci	r25, 0xFF	; 255
    24b4:	99 23       	and	r25, r25
    24b6:	a9 f0       	breq	.+42     	; 0x24e2 <__floatsisf+0x40>
    24b8:	f9 2f       	mov	r31, r25
    24ba:	96 e9       	ldi	r25, 0x96	; 150
    24bc:	bb 27       	eor	r27, r27
    24be:	93 95       	inc	r25
    24c0:	f6 95       	lsr	r31
    24c2:	87 95       	ror	r24
    24c4:	77 95       	ror	r23
    24c6:	67 95       	ror	r22
    24c8:	b7 95       	ror	r27
    24ca:	f1 11       	cpse	r31, r1
    24cc:	f8 cf       	rjmp	.-16     	; 0x24be <__floatsisf+0x1c>
    24ce:	fa f4       	brpl	.+62     	; 0x250e <__floatsisf+0x6c>
    24d0:	bb 0f       	add	r27, r27
    24d2:	11 f4       	brne	.+4      	; 0x24d8 <__floatsisf+0x36>
    24d4:	60 ff       	sbrs	r22, 0
    24d6:	1b c0       	rjmp	.+54     	; 0x250e <__floatsisf+0x6c>
    24d8:	6f 5f       	subi	r22, 0xFF	; 255
    24da:	7f 4f       	sbci	r23, 0xFF	; 255
    24dc:	8f 4f       	sbci	r24, 0xFF	; 255
    24de:	9f 4f       	sbci	r25, 0xFF	; 255
    24e0:	16 c0       	rjmp	.+44     	; 0x250e <__floatsisf+0x6c>
    24e2:	88 23       	and	r24, r24
    24e4:	11 f0       	breq	.+4      	; 0x24ea <__floatsisf+0x48>
    24e6:	96 e9       	ldi	r25, 0x96	; 150
    24e8:	11 c0       	rjmp	.+34     	; 0x250c <__floatsisf+0x6a>
    24ea:	77 23       	and	r23, r23
    24ec:	21 f0       	breq	.+8      	; 0x24f6 <__floatsisf+0x54>
    24ee:	9e e8       	ldi	r25, 0x8E	; 142
    24f0:	87 2f       	mov	r24, r23
    24f2:	76 2f       	mov	r23, r22
    24f4:	05 c0       	rjmp	.+10     	; 0x2500 <__floatsisf+0x5e>
    24f6:	66 23       	and	r22, r22
    24f8:	71 f0       	breq	.+28     	; 0x2516 <__floatsisf+0x74>
    24fa:	96 e8       	ldi	r25, 0x86	; 134
    24fc:	86 2f       	mov	r24, r22
    24fe:	70 e0       	ldi	r23, 0x00	; 0
    2500:	60 e0       	ldi	r22, 0x00	; 0
    2502:	2a f0       	brmi	.+10     	; 0x250e <__floatsisf+0x6c>
    2504:	9a 95       	dec	r25
    2506:	66 0f       	add	r22, r22
    2508:	77 1f       	adc	r23, r23
    250a:	88 1f       	adc	r24, r24
    250c:	da f7       	brpl	.-10     	; 0x2504 <__floatsisf+0x62>
    250e:	88 0f       	add	r24, r24
    2510:	96 95       	lsr	r25
    2512:	87 95       	ror	r24
    2514:	97 f9       	bld	r25, 7
    2516:	08 95       	ret

00002518 <__fp_cmp>:
    2518:	99 0f       	add	r25, r25
    251a:	00 08       	sbc	r0, r0
    251c:	55 0f       	add	r21, r21
    251e:	aa 0b       	sbc	r26, r26
    2520:	e0 e8       	ldi	r30, 0x80	; 128
    2522:	fe ef       	ldi	r31, 0xFE	; 254
    2524:	16 16       	cp	r1, r22
    2526:	17 06       	cpc	r1, r23
    2528:	e8 07       	cpc	r30, r24
    252a:	f9 07       	cpc	r31, r25
    252c:	c0 f0       	brcs	.+48     	; 0x255e <__fp_cmp+0x46>
    252e:	12 16       	cp	r1, r18
    2530:	13 06       	cpc	r1, r19
    2532:	e4 07       	cpc	r30, r20
    2534:	f5 07       	cpc	r31, r21
    2536:	98 f0       	brcs	.+38     	; 0x255e <__fp_cmp+0x46>
    2538:	62 1b       	sub	r22, r18
    253a:	73 0b       	sbc	r23, r19
    253c:	84 0b       	sbc	r24, r20
    253e:	95 0b       	sbc	r25, r21
    2540:	39 f4       	brne	.+14     	; 0x2550 <__fp_cmp+0x38>
    2542:	0a 26       	eor	r0, r26
    2544:	61 f0       	breq	.+24     	; 0x255e <__fp_cmp+0x46>
    2546:	23 2b       	or	r18, r19
    2548:	24 2b       	or	r18, r20
    254a:	25 2b       	or	r18, r21
    254c:	21 f4       	brne	.+8      	; 0x2556 <__fp_cmp+0x3e>
    254e:	08 95       	ret
    2550:	0a 26       	eor	r0, r26
    2552:	09 f4       	brne	.+2      	; 0x2556 <__fp_cmp+0x3e>
    2554:	a1 40       	sbci	r26, 0x01	; 1
    2556:	a6 95       	lsr	r26
    2558:	8f ef       	ldi	r24, 0xFF	; 255
    255a:	81 1d       	adc	r24, r1
    255c:	81 1d       	adc	r24, r1
    255e:	08 95       	ret

00002560 <__fp_inf>:
    2560:	97 f9       	bld	r25, 7
    2562:	9f 67       	ori	r25, 0x7F	; 127
    2564:	80 e8       	ldi	r24, 0x80	; 128
    2566:	70 e0       	ldi	r23, 0x00	; 0
    2568:	60 e0       	ldi	r22, 0x00	; 0
    256a:	08 95       	ret

0000256c <__fp_nan>:
    256c:	9f ef       	ldi	r25, 0xFF	; 255
    256e:	80 ec       	ldi	r24, 0xC0	; 192
    2570:	08 95       	ret

00002572 <__fp_pscA>:
    2572:	00 24       	eor	r0, r0
    2574:	0a 94       	dec	r0
    2576:	16 16       	cp	r1, r22
    2578:	17 06       	cpc	r1, r23
    257a:	18 06       	cpc	r1, r24
    257c:	09 06       	cpc	r0, r25
    257e:	08 95       	ret

00002580 <__fp_pscB>:
    2580:	00 24       	eor	r0, r0
    2582:	0a 94       	dec	r0
    2584:	12 16       	cp	r1, r18
    2586:	13 06       	cpc	r1, r19
    2588:	14 06       	cpc	r1, r20
    258a:	05 06       	cpc	r0, r21
    258c:	08 95       	ret

0000258e <__fp_round>:
    258e:	09 2e       	mov	r0, r25
    2590:	03 94       	inc	r0
    2592:	00 0c       	add	r0, r0
    2594:	11 f4       	brne	.+4      	; 0x259a <__fp_round+0xc>
    2596:	88 23       	and	r24, r24
    2598:	52 f0       	brmi	.+20     	; 0x25ae <__fp_round+0x20>
    259a:	bb 0f       	add	r27, r27
    259c:	40 f4       	brcc	.+16     	; 0x25ae <__fp_round+0x20>
    259e:	bf 2b       	or	r27, r31
    25a0:	11 f4       	brne	.+4      	; 0x25a6 <__fp_round+0x18>
    25a2:	60 ff       	sbrs	r22, 0
    25a4:	04 c0       	rjmp	.+8      	; 0x25ae <__fp_round+0x20>
    25a6:	6f 5f       	subi	r22, 0xFF	; 255
    25a8:	7f 4f       	sbci	r23, 0xFF	; 255
    25aa:	8f 4f       	sbci	r24, 0xFF	; 255
    25ac:	9f 4f       	sbci	r25, 0xFF	; 255
    25ae:	08 95       	ret

000025b0 <__fp_split3>:
    25b0:	57 fd       	sbrc	r21, 7
    25b2:	90 58       	subi	r25, 0x80	; 128
    25b4:	44 0f       	add	r20, r20
    25b6:	55 1f       	adc	r21, r21
    25b8:	59 f0       	breq	.+22     	; 0x25d0 <__fp_splitA+0x10>
    25ba:	5f 3f       	cpi	r21, 0xFF	; 255
    25bc:	71 f0       	breq	.+28     	; 0x25da <__fp_splitA+0x1a>
    25be:	47 95       	ror	r20

000025c0 <__fp_splitA>:
    25c0:	88 0f       	add	r24, r24
    25c2:	97 fb       	bst	r25, 7
    25c4:	99 1f       	adc	r25, r25
    25c6:	61 f0       	breq	.+24     	; 0x25e0 <__fp_splitA+0x20>
    25c8:	9f 3f       	cpi	r25, 0xFF	; 255
    25ca:	79 f0       	breq	.+30     	; 0x25ea <__fp_splitA+0x2a>
    25cc:	87 95       	ror	r24
    25ce:	08 95       	ret
    25d0:	12 16       	cp	r1, r18
    25d2:	13 06       	cpc	r1, r19
    25d4:	14 06       	cpc	r1, r20
    25d6:	55 1f       	adc	r21, r21
    25d8:	f2 cf       	rjmp	.-28     	; 0x25be <__fp_split3+0xe>
    25da:	46 95       	lsr	r20
    25dc:	f1 df       	rcall	.-30     	; 0x25c0 <__fp_splitA>
    25de:	08 c0       	rjmp	.+16     	; 0x25f0 <__fp_splitA+0x30>
    25e0:	16 16       	cp	r1, r22
    25e2:	17 06       	cpc	r1, r23
    25e4:	18 06       	cpc	r1, r24
    25e6:	99 1f       	adc	r25, r25
    25e8:	f1 cf       	rjmp	.-30     	; 0x25cc <__fp_splitA+0xc>
    25ea:	86 95       	lsr	r24
    25ec:	71 05       	cpc	r23, r1
    25ee:	61 05       	cpc	r22, r1
    25f0:	08 94       	sec
    25f2:	08 95       	ret

000025f4 <__fp_zero>:
    25f4:	e8 94       	clt

000025f6 <__fp_szero>:
    25f6:	bb 27       	eor	r27, r27
    25f8:	66 27       	eor	r22, r22
    25fa:	77 27       	eor	r23, r23
    25fc:	cb 01       	movw	r24, r22
    25fe:	97 f9       	bld	r25, 7
    2600:	08 95       	ret

00002602 <__gesf2>:
    2602:	8a df       	rcall	.-236    	; 0x2518 <__fp_cmp>
    2604:	08 f4       	brcc	.+2      	; 0x2608 <__gesf2+0x6>
    2606:	8f ef       	ldi	r24, 0xFF	; 255
    2608:	08 95       	ret

0000260a <__mulsf3>:
    260a:	0b d0       	rcall	.+22     	; 0x2622 <__mulsf3x>
    260c:	c0 cf       	rjmp	.-128    	; 0x258e <__fp_round>
    260e:	b1 df       	rcall	.-158    	; 0x2572 <__fp_pscA>
    2610:	28 f0       	brcs	.+10     	; 0x261c <__mulsf3+0x12>
    2612:	b6 df       	rcall	.-148    	; 0x2580 <__fp_pscB>
    2614:	18 f0       	brcs	.+6      	; 0x261c <__mulsf3+0x12>
    2616:	95 23       	and	r25, r21
    2618:	09 f0       	breq	.+2      	; 0x261c <__mulsf3+0x12>
    261a:	a2 cf       	rjmp	.-188    	; 0x2560 <__fp_inf>
    261c:	a7 cf       	rjmp	.-178    	; 0x256c <__fp_nan>
    261e:	11 24       	eor	r1, r1
    2620:	ea cf       	rjmp	.-44     	; 0x25f6 <__fp_szero>

00002622 <__mulsf3x>:
    2622:	c6 df       	rcall	.-116    	; 0x25b0 <__fp_split3>
    2624:	a0 f3       	brcs	.-24     	; 0x260e <__mulsf3+0x4>

00002626 <__mulsf3_pse>:
    2626:	95 9f       	mul	r25, r21
    2628:	d1 f3       	breq	.-12     	; 0x261e <__mulsf3+0x14>
    262a:	95 0f       	add	r25, r21
    262c:	50 e0       	ldi	r21, 0x00	; 0
    262e:	55 1f       	adc	r21, r21
    2630:	62 9f       	mul	r22, r18
    2632:	f0 01       	movw	r30, r0
    2634:	72 9f       	mul	r23, r18
    2636:	bb 27       	eor	r27, r27
    2638:	f0 0d       	add	r31, r0
    263a:	b1 1d       	adc	r27, r1
    263c:	63 9f       	mul	r22, r19
    263e:	aa 27       	eor	r26, r26
    2640:	f0 0d       	add	r31, r0
    2642:	b1 1d       	adc	r27, r1
    2644:	aa 1f       	adc	r26, r26
    2646:	64 9f       	mul	r22, r20
    2648:	66 27       	eor	r22, r22
    264a:	b0 0d       	add	r27, r0
    264c:	a1 1d       	adc	r26, r1
    264e:	66 1f       	adc	r22, r22
    2650:	82 9f       	mul	r24, r18
    2652:	22 27       	eor	r18, r18
    2654:	b0 0d       	add	r27, r0
    2656:	a1 1d       	adc	r26, r1
    2658:	62 1f       	adc	r22, r18
    265a:	73 9f       	mul	r23, r19
    265c:	b0 0d       	add	r27, r0
    265e:	a1 1d       	adc	r26, r1
    2660:	62 1f       	adc	r22, r18
    2662:	83 9f       	mul	r24, r19
    2664:	a0 0d       	add	r26, r0
    2666:	61 1d       	adc	r22, r1
    2668:	22 1f       	adc	r18, r18
    266a:	74 9f       	mul	r23, r20
    266c:	33 27       	eor	r19, r19
    266e:	a0 0d       	add	r26, r0
    2670:	61 1d       	adc	r22, r1
    2672:	23 1f       	adc	r18, r19
    2674:	84 9f       	mul	r24, r20
    2676:	60 0d       	add	r22, r0
    2678:	21 1d       	adc	r18, r1
    267a:	82 2f       	mov	r24, r18
    267c:	76 2f       	mov	r23, r22
    267e:	6a 2f       	mov	r22, r26
    2680:	11 24       	eor	r1, r1
    2682:	9f 57       	subi	r25, 0x7F	; 127
    2684:	50 40       	sbci	r21, 0x00	; 0
    2686:	8a f0       	brmi	.+34     	; 0x26aa <__mulsf3_pse+0x84>
    2688:	e1 f0       	breq	.+56     	; 0x26c2 <__mulsf3_pse+0x9c>
    268a:	88 23       	and	r24, r24
    268c:	4a f0       	brmi	.+18     	; 0x26a0 <__mulsf3_pse+0x7a>
    268e:	ee 0f       	add	r30, r30
    2690:	ff 1f       	adc	r31, r31
    2692:	bb 1f       	adc	r27, r27
    2694:	66 1f       	adc	r22, r22
    2696:	77 1f       	adc	r23, r23
    2698:	88 1f       	adc	r24, r24
    269a:	91 50       	subi	r25, 0x01	; 1
    269c:	50 40       	sbci	r21, 0x00	; 0
    269e:	a9 f7       	brne	.-22     	; 0x268a <__mulsf3_pse+0x64>
    26a0:	9e 3f       	cpi	r25, 0xFE	; 254
    26a2:	51 05       	cpc	r21, r1
    26a4:	70 f0       	brcs	.+28     	; 0x26c2 <__mulsf3_pse+0x9c>
    26a6:	5c cf       	rjmp	.-328    	; 0x2560 <__fp_inf>
    26a8:	a6 cf       	rjmp	.-180    	; 0x25f6 <__fp_szero>
    26aa:	5f 3f       	cpi	r21, 0xFF	; 255
    26ac:	ec f3       	brlt	.-6      	; 0x26a8 <__mulsf3_pse+0x82>
    26ae:	98 3e       	cpi	r25, 0xE8	; 232
    26b0:	dc f3       	brlt	.-10     	; 0x26a8 <__mulsf3_pse+0x82>
    26b2:	86 95       	lsr	r24
    26b4:	77 95       	ror	r23
    26b6:	67 95       	ror	r22
    26b8:	b7 95       	ror	r27
    26ba:	f7 95       	ror	r31
    26bc:	e7 95       	ror	r30
    26be:	9f 5f       	subi	r25, 0xFF	; 255
    26c0:	c1 f7       	brne	.-16     	; 0x26b2 <__mulsf3_pse+0x8c>
    26c2:	fe 2b       	or	r31, r30
    26c4:	88 0f       	add	r24, r24
    26c6:	91 1d       	adc	r25, r1
    26c8:	96 95       	lsr	r25
    26ca:	87 95       	ror	r24
    26cc:	97 f9       	bld	r25, 7
    26ce:	08 95       	ret

000026d0 <trunc>:
    26d0:	2f d0       	rcall	.+94     	; 0x2730 <__fp_trunc>
    26d2:	20 f0       	brcs	.+8      	; 0x26dc <trunc+0xc>
    26d4:	9f 37       	cpi	r25, 0x7F	; 127
    26d6:	08 f4       	brcc	.+2      	; 0x26da <trunc+0xa>
    26d8:	8e cf       	rjmp	.-228    	; 0x25f6 <__fp_szero>
    26da:	01 c0       	rjmp	.+2      	; 0x26de <__fp_mintl>
    26dc:	1b c0       	rjmp	.+54     	; 0x2714 <__fp_mpack>

000026de <__fp_mintl>:
    26de:	88 23       	and	r24, r24
    26e0:	71 f4       	brne	.+28     	; 0x26fe <__fp_mintl+0x20>
    26e2:	77 23       	and	r23, r23
    26e4:	21 f0       	breq	.+8      	; 0x26ee <__fp_mintl+0x10>
    26e6:	98 50       	subi	r25, 0x08	; 8
    26e8:	87 2b       	or	r24, r23
    26ea:	76 2f       	mov	r23, r22
    26ec:	07 c0       	rjmp	.+14     	; 0x26fc <__fp_mintl+0x1e>
    26ee:	66 23       	and	r22, r22
    26f0:	11 f4       	brne	.+4      	; 0x26f6 <__fp_mintl+0x18>
    26f2:	99 27       	eor	r25, r25
    26f4:	0d c0       	rjmp	.+26     	; 0x2710 <__fp_mintl+0x32>
    26f6:	90 51       	subi	r25, 0x10	; 16
    26f8:	86 2b       	or	r24, r22
    26fa:	70 e0       	ldi	r23, 0x00	; 0
    26fc:	60 e0       	ldi	r22, 0x00	; 0
    26fe:	2a f0       	brmi	.+10     	; 0x270a <__fp_mintl+0x2c>
    2700:	9a 95       	dec	r25
    2702:	66 0f       	add	r22, r22
    2704:	77 1f       	adc	r23, r23
    2706:	88 1f       	adc	r24, r24
    2708:	da f7       	brpl	.-10     	; 0x2700 <__fp_mintl+0x22>
    270a:	88 0f       	add	r24, r24
    270c:	96 95       	lsr	r25
    270e:	87 95       	ror	r24
    2710:	97 f9       	bld	r25, 7
    2712:	08 95       	ret

00002714 <__fp_mpack>:
    2714:	9f 3f       	cpi	r25, 0xFF	; 255
    2716:	31 f0       	breq	.+12     	; 0x2724 <__fp_mpack_finite+0xc>

00002718 <__fp_mpack_finite>:
    2718:	91 50       	subi	r25, 0x01	; 1
    271a:	20 f4       	brcc	.+8      	; 0x2724 <__fp_mpack_finite+0xc>
    271c:	87 95       	ror	r24
    271e:	77 95       	ror	r23
    2720:	67 95       	ror	r22
    2722:	b7 95       	ror	r27
    2724:	88 0f       	add	r24, r24
    2726:	91 1d       	adc	r25, r1
    2728:	96 95       	lsr	r25
    272a:	87 95       	ror	r24
    272c:	97 f9       	bld	r25, 7
    272e:	08 95       	ret

00002730 <__fp_trunc>:
    2730:	47 df       	rcall	.-370    	; 0x25c0 <__fp_splitA>
    2732:	a0 f0       	brcs	.+40     	; 0x275c <__fp_trunc+0x2c>
    2734:	be e7       	ldi	r27, 0x7E	; 126
    2736:	b9 17       	cp	r27, r25
    2738:	88 f4       	brcc	.+34     	; 0x275c <__fp_trunc+0x2c>
    273a:	bb 27       	eor	r27, r27
    273c:	9f 38       	cpi	r25, 0x8F	; 143
    273e:	60 f4       	brcc	.+24     	; 0x2758 <__fp_trunc+0x28>
    2740:	16 16       	cp	r1, r22
    2742:	b1 1d       	adc	r27, r1
    2744:	67 2f       	mov	r22, r23
    2746:	78 2f       	mov	r23, r24
    2748:	88 27       	eor	r24, r24
    274a:	98 5f       	subi	r25, 0xF8	; 248
    274c:	f7 cf       	rjmp	.-18     	; 0x273c <__fp_trunc+0xc>
    274e:	86 95       	lsr	r24
    2750:	77 95       	ror	r23
    2752:	67 95       	ror	r22
    2754:	b1 1d       	adc	r27, r1
    2756:	93 95       	inc	r25
    2758:	96 39       	cpi	r25, 0x96	; 150
    275a:	c8 f3       	brcs	.-14     	; 0x274e <__fp_trunc+0x1e>
    275c:	08 95       	ret

0000275e <atof>:
    275e:	66 27       	eor	r22, r22
    2760:	77 27       	eor	r23, r23
    2762:	03 c2       	rjmp	.+1030   	; 0x2b6a <strtod>

00002764 <strcat>:
    2764:	fb 01       	movw	r30, r22
    2766:	dc 01       	movw	r26, r24
    2768:	0d 90       	ld	r0, X+
    276a:	00 20       	and	r0, r0
    276c:	e9 f7       	brne	.-6      	; 0x2768 <strcat+0x4>
    276e:	11 97       	sbiw	r26, 0x01	; 1
    2770:	01 90       	ld	r0, Z+
    2772:	0d 92       	st	X+, r0
    2774:	00 20       	and	r0, r0
    2776:	e1 f7       	brne	.-8      	; 0x2770 <strcat+0xc>
    2778:	08 95       	ret

0000277a <strcpy>:
    277a:	fb 01       	movw	r30, r22
    277c:	dc 01       	movw	r26, r24
    277e:	01 90       	ld	r0, Z+
    2780:	0d 92       	st	X+, r0
    2782:	00 20       	and	r0, r0
    2784:	e1 f7       	brne	.-8      	; 0x277e <strcpy+0x4>
    2786:	08 95       	ret

00002788 <sprintf>:
    2788:	ae e0       	ldi	r26, 0x0E	; 14
    278a:	b0 e0       	ldi	r27, 0x00	; 0
    278c:	e9 ec       	ldi	r30, 0xC9	; 201
    278e:	f3 e1       	ldi	r31, 0x13	; 19
    2790:	4b c4       	rjmp	.+2198   	; 0x3028 <__prologue_saves__+0x1c>
    2792:	0d 89       	ldd	r16, Y+21	; 0x15
    2794:	1e 89       	ldd	r17, Y+22	; 0x16
    2796:	86 e0       	ldi	r24, 0x06	; 6
    2798:	8c 83       	std	Y+4, r24	; 0x04
    279a:	1a 83       	std	Y+2, r17	; 0x02
    279c:	09 83       	std	Y+1, r16	; 0x01
    279e:	8f ef       	ldi	r24, 0xFF	; 255
    27a0:	9f e7       	ldi	r25, 0x7F	; 127
    27a2:	9e 83       	std	Y+6, r25	; 0x06
    27a4:	8d 83       	std	Y+5, r24	; 0x05
    27a6:	ae 01       	movw	r20, r28
    27a8:	47 5e       	subi	r20, 0xE7	; 231
    27aa:	5f 4f       	sbci	r21, 0xFF	; 255
    27ac:	6f 89       	ldd	r22, Y+23	; 0x17
    27ae:	78 8d       	ldd	r23, Y+24	; 0x18
    27b0:	ce 01       	movw	r24, r28
    27b2:	01 96       	adiw	r24, 0x01	; 1
    27b4:	08 d0       	rcall	.+16     	; 0x27c6 <vfprintf>
    27b6:	ef 81       	ldd	r30, Y+7	; 0x07
    27b8:	f8 85       	ldd	r31, Y+8	; 0x08
    27ba:	e0 0f       	add	r30, r16
    27bc:	f1 1f       	adc	r31, r17
    27be:	10 82       	st	Z, r1
    27c0:	2e 96       	adiw	r28, 0x0e	; 14
    27c2:	e4 e0       	ldi	r30, 0x04	; 4
    27c4:	4d c4       	rjmp	.+2202   	; 0x3060 <__epilogue_restores__+0x1c>

000027c6 <vfprintf>:
    27c6:	ab e0       	ldi	r26, 0x0B	; 11
    27c8:	b0 e0       	ldi	r27, 0x00	; 0
    27ca:	e8 ee       	ldi	r30, 0xE8	; 232
    27cc:	f3 e1       	ldi	r31, 0x13	; 19
    27ce:	1e c4       	rjmp	.+2108   	; 0x300c <__prologue_saves__>
    27d0:	6c 01       	movw	r12, r24
    27d2:	7b 01       	movw	r14, r22
    27d4:	8a 01       	movw	r16, r20
    27d6:	fc 01       	movw	r30, r24
    27d8:	17 82       	std	Z+7, r1	; 0x07
    27da:	16 82       	std	Z+6, r1	; 0x06
    27dc:	83 81       	ldd	r24, Z+3	; 0x03
    27de:	81 ff       	sbrs	r24, 1
    27e0:	bf c1       	rjmp	.+894    	; 0x2b60 <vfprintf+0x39a>
    27e2:	ce 01       	movw	r24, r28
    27e4:	01 96       	adiw	r24, 0x01	; 1
    27e6:	3c 01       	movw	r6, r24
    27e8:	f6 01       	movw	r30, r12
    27ea:	93 81       	ldd	r25, Z+3	; 0x03
    27ec:	f7 01       	movw	r30, r14
    27ee:	93 fd       	sbrc	r25, 3
    27f0:	85 91       	lpm	r24, Z+
    27f2:	93 ff       	sbrs	r25, 3
    27f4:	81 91       	ld	r24, Z+
    27f6:	7f 01       	movw	r14, r30
    27f8:	88 23       	and	r24, r24
    27fa:	09 f4       	brne	.+2      	; 0x27fe <vfprintf+0x38>
    27fc:	ad c1       	rjmp	.+858    	; 0x2b58 <vfprintf+0x392>
    27fe:	85 32       	cpi	r24, 0x25	; 37
    2800:	39 f4       	brne	.+14     	; 0x2810 <vfprintf+0x4a>
    2802:	93 fd       	sbrc	r25, 3
    2804:	85 91       	lpm	r24, Z+
    2806:	93 ff       	sbrs	r25, 3
    2808:	81 91       	ld	r24, Z+
    280a:	7f 01       	movw	r14, r30
    280c:	85 32       	cpi	r24, 0x25	; 37
    280e:	21 f4       	brne	.+8      	; 0x2818 <vfprintf+0x52>
    2810:	b6 01       	movw	r22, r12
    2812:	90 e0       	ldi	r25, 0x00	; 0
    2814:	23 d3       	rcall	.+1606   	; 0x2e5c <fputc>
    2816:	e8 cf       	rjmp	.-48     	; 0x27e8 <vfprintf+0x22>
    2818:	91 2c       	mov	r9, r1
    281a:	21 2c       	mov	r2, r1
    281c:	31 2c       	mov	r3, r1
    281e:	ff e1       	ldi	r31, 0x1F	; 31
    2820:	f3 15       	cp	r31, r3
    2822:	d8 f0       	brcs	.+54     	; 0x285a <vfprintf+0x94>
    2824:	8b 32       	cpi	r24, 0x2B	; 43
    2826:	79 f0       	breq	.+30     	; 0x2846 <vfprintf+0x80>
    2828:	38 f4       	brcc	.+14     	; 0x2838 <vfprintf+0x72>
    282a:	80 32       	cpi	r24, 0x20	; 32
    282c:	79 f0       	breq	.+30     	; 0x284c <vfprintf+0x86>
    282e:	83 32       	cpi	r24, 0x23	; 35
    2830:	a1 f4       	brne	.+40     	; 0x285a <vfprintf+0x94>
    2832:	23 2d       	mov	r18, r3
    2834:	20 61       	ori	r18, 0x10	; 16
    2836:	1d c0       	rjmp	.+58     	; 0x2872 <vfprintf+0xac>
    2838:	8d 32       	cpi	r24, 0x2D	; 45
    283a:	61 f0       	breq	.+24     	; 0x2854 <vfprintf+0x8e>
    283c:	80 33       	cpi	r24, 0x30	; 48
    283e:	69 f4       	brne	.+26     	; 0x285a <vfprintf+0x94>
    2840:	23 2d       	mov	r18, r3
    2842:	21 60       	ori	r18, 0x01	; 1
    2844:	16 c0       	rjmp	.+44     	; 0x2872 <vfprintf+0xac>
    2846:	83 2d       	mov	r24, r3
    2848:	82 60       	ori	r24, 0x02	; 2
    284a:	38 2e       	mov	r3, r24
    284c:	e3 2d       	mov	r30, r3
    284e:	e4 60       	ori	r30, 0x04	; 4
    2850:	3e 2e       	mov	r3, r30
    2852:	2a c0       	rjmp	.+84     	; 0x28a8 <vfprintf+0xe2>
    2854:	f3 2d       	mov	r31, r3
    2856:	f8 60       	ori	r31, 0x08	; 8
    2858:	1d c0       	rjmp	.+58     	; 0x2894 <vfprintf+0xce>
    285a:	37 fc       	sbrc	r3, 7
    285c:	2d c0       	rjmp	.+90     	; 0x28b8 <vfprintf+0xf2>
    285e:	20 ed       	ldi	r18, 0xD0	; 208
    2860:	28 0f       	add	r18, r24
    2862:	2a 30       	cpi	r18, 0x0A	; 10
    2864:	40 f0       	brcs	.+16     	; 0x2876 <vfprintf+0xb0>
    2866:	8e 32       	cpi	r24, 0x2E	; 46
    2868:	b9 f4       	brne	.+46     	; 0x2898 <vfprintf+0xd2>
    286a:	36 fc       	sbrc	r3, 6
    286c:	75 c1       	rjmp	.+746    	; 0x2b58 <vfprintf+0x392>
    286e:	23 2d       	mov	r18, r3
    2870:	20 64       	ori	r18, 0x40	; 64
    2872:	32 2e       	mov	r3, r18
    2874:	19 c0       	rjmp	.+50     	; 0x28a8 <vfprintf+0xe2>
    2876:	36 fe       	sbrs	r3, 6
    2878:	06 c0       	rjmp	.+12     	; 0x2886 <vfprintf+0xc0>
    287a:	8a e0       	ldi	r24, 0x0A	; 10
    287c:	98 9e       	mul	r9, r24
    287e:	20 0d       	add	r18, r0
    2880:	11 24       	eor	r1, r1
    2882:	92 2e       	mov	r9, r18
    2884:	11 c0       	rjmp	.+34     	; 0x28a8 <vfprintf+0xe2>
    2886:	ea e0       	ldi	r30, 0x0A	; 10
    2888:	2e 9e       	mul	r2, r30
    288a:	20 0d       	add	r18, r0
    288c:	11 24       	eor	r1, r1
    288e:	22 2e       	mov	r2, r18
    2890:	f3 2d       	mov	r31, r3
    2892:	f0 62       	ori	r31, 0x20	; 32
    2894:	3f 2e       	mov	r3, r31
    2896:	08 c0       	rjmp	.+16     	; 0x28a8 <vfprintf+0xe2>
    2898:	8c 36       	cpi	r24, 0x6C	; 108
    289a:	21 f4       	brne	.+8      	; 0x28a4 <vfprintf+0xde>
    289c:	83 2d       	mov	r24, r3
    289e:	80 68       	ori	r24, 0x80	; 128
    28a0:	38 2e       	mov	r3, r24
    28a2:	02 c0       	rjmp	.+4      	; 0x28a8 <vfprintf+0xe2>
    28a4:	88 36       	cpi	r24, 0x68	; 104
    28a6:	41 f4       	brne	.+16     	; 0x28b8 <vfprintf+0xf2>
    28a8:	f7 01       	movw	r30, r14
    28aa:	93 fd       	sbrc	r25, 3
    28ac:	85 91       	lpm	r24, Z+
    28ae:	93 ff       	sbrs	r25, 3
    28b0:	81 91       	ld	r24, Z+
    28b2:	7f 01       	movw	r14, r30
    28b4:	81 11       	cpse	r24, r1
    28b6:	b3 cf       	rjmp	.-154    	; 0x281e <vfprintf+0x58>
    28b8:	98 2f       	mov	r25, r24
    28ba:	9f 7d       	andi	r25, 0xDF	; 223
    28bc:	95 54       	subi	r25, 0x45	; 69
    28be:	93 30       	cpi	r25, 0x03	; 3
    28c0:	28 f4       	brcc	.+10     	; 0x28cc <vfprintf+0x106>
    28c2:	0c 5f       	subi	r16, 0xFC	; 252
    28c4:	1f 4f       	sbci	r17, 0xFF	; 255
    28c6:	9f e3       	ldi	r25, 0x3F	; 63
    28c8:	99 83       	std	Y+1, r25	; 0x01
    28ca:	0d c0       	rjmp	.+26     	; 0x28e6 <vfprintf+0x120>
    28cc:	83 36       	cpi	r24, 0x63	; 99
    28ce:	31 f0       	breq	.+12     	; 0x28dc <vfprintf+0x116>
    28d0:	83 37       	cpi	r24, 0x73	; 115
    28d2:	71 f0       	breq	.+28     	; 0x28f0 <vfprintf+0x12a>
    28d4:	83 35       	cpi	r24, 0x53	; 83
    28d6:	09 f0       	breq	.+2      	; 0x28da <vfprintf+0x114>
    28d8:	55 c0       	rjmp	.+170    	; 0x2984 <vfprintf+0x1be>
    28da:	20 c0       	rjmp	.+64     	; 0x291c <vfprintf+0x156>
    28dc:	f8 01       	movw	r30, r16
    28de:	80 81       	ld	r24, Z
    28e0:	89 83       	std	Y+1, r24	; 0x01
    28e2:	0e 5f       	subi	r16, 0xFE	; 254
    28e4:	1f 4f       	sbci	r17, 0xFF	; 255
    28e6:	88 24       	eor	r8, r8
    28e8:	83 94       	inc	r8
    28ea:	91 2c       	mov	r9, r1
    28ec:	53 01       	movw	r10, r6
    28ee:	12 c0       	rjmp	.+36     	; 0x2914 <vfprintf+0x14e>
    28f0:	28 01       	movw	r4, r16
    28f2:	f2 e0       	ldi	r31, 0x02	; 2
    28f4:	4f 0e       	add	r4, r31
    28f6:	51 1c       	adc	r5, r1
    28f8:	f8 01       	movw	r30, r16
    28fa:	a0 80       	ld	r10, Z
    28fc:	b1 80       	ldd	r11, Z+1	; 0x01
    28fe:	36 fe       	sbrs	r3, 6
    2900:	03 c0       	rjmp	.+6      	; 0x2908 <vfprintf+0x142>
    2902:	69 2d       	mov	r22, r9
    2904:	70 e0       	ldi	r23, 0x00	; 0
    2906:	02 c0       	rjmp	.+4      	; 0x290c <vfprintf+0x146>
    2908:	6f ef       	ldi	r22, 0xFF	; 255
    290a:	7f ef       	ldi	r23, 0xFF	; 255
    290c:	c5 01       	movw	r24, r10
    290e:	9b d2       	rcall	.+1334   	; 0x2e46 <strnlen>
    2910:	4c 01       	movw	r8, r24
    2912:	82 01       	movw	r16, r4
    2914:	f3 2d       	mov	r31, r3
    2916:	ff 77       	andi	r31, 0x7F	; 127
    2918:	3f 2e       	mov	r3, r31
    291a:	15 c0       	rjmp	.+42     	; 0x2946 <vfprintf+0x180>
    291c:	28 01       	movw	r4, r16
    291e:	22 e0       	ldi	r18, 0x02	; 2
    2920:	42 0e       	add	r4, r18
    2922:	51 1c       	adc	r5, r1
    2924:	f8 01       	movw	r30, r16
    2926:	a0 80       	ld	r10, Z
    2928:	b1 80       	ldd	r11, Z+1	; 0x01
    292a:	36 fe       	sbrs	r3, 6
    292c:	03 c0       	rjmp	.+6      	; 0x2934 <vfprintf+0x16e>
    292e:	69 2d       	mov	r22, r9
    2930:	70 e0       	ldi	r23, 0x00	; 0
    2932:	02 c0       	rjmp	.+4      	; 0x2938 <vfprintf+0x172>
    2934:	6f ef       	ldi	r22, 0xFF	; 255
    2936:	7f ef       	ldi	r23, 0xFF	; 255
    2938:	c5 01       	movw	r24, r10
    293a:	7a d2       	rcall	.+1268   	; 0x2e30 <strnlen_P>
    293c:	4c 01       	movw	r8, r24
    293e:	f3 2d       	mov	r31, r3
    2940:	f0 68       	ori	r31, 0x80	; 128
    2942:	3f 2e       	mov	r3, r31
    2944:	82 01       	movw	r16, r4
    2946:	33 fc       	sbrc	r3, 3
    2948:	19 c0       	rjmp	.+50     	; 0x297c <vfprintf+0x1b6>
    294a:	82 2d       	mov	r24, r2
    294c:	90 e0       	ldi	r25, 0x00	; 0
    294e:	88 16       	cp	r8, r24
    2950:	99 06       	cpc	r9, r25
    2952:	a0 f4       	brcc	.+40     	; 0x297c <vfprintf+0x1b6>
    2954:	b6 01       	movw	r22, r12
    2956:	80 e2       	ldi	r24, 0x20	; 32
    2958:	90 e0       	ldi	r25, 0x00	; 0
    295a:	80 d2       	rcall	.+1280   	; 0x2e5c <fputc>
    295c:	2a 94       	dec	r2
    295e:	f5 cf       	rjmp	.-22     	; 0x294a <vfprintf+0x184>
    2960:	f5 01       	movw	r30, r10
    2962:	37 fc       	sbrc	r3, 7
    2964:	85 91       	lpm	r24, Z+
    2966:	37 fe       	sbrs	r3, 7
    2968:	81 91       	ld	r24, Z+
    296a:	5f 01       	movw	r10, r30
    296c:	b6 01       	movw	r22, r12
    296e:	90 e0       	ldi	r25, 0x00	; 0
    2970:	75 d2       	rcall	.+1258   	; 0x2e5c <fputc>
    2972:	21 10       	cpse	r2, r1
    2974:	2a 94       	dec	r2
    2976:	21 e0       	ldi	r18, 0x01	; 1
    2978:	82 1a       	sub	r8, r18
    297a:	91 08       	sbc	r9, r1
    297c:	81 14       	cp	r8, r1
    297e:	91 04       	cpc	r9, r1
    2980:	79 f7       	brne	.-34     	; 0x2960 <vfprintf+0x19a>
    2982:	e1 c0       	rjmp	.+450    	; 0x2b46 <vfprintf+0x380>
    2984:	84 36       	cpi	r24, 0x64	; 100
    2986:	11 f0       	breq	.+4      	; 0x298c <vfprintf+0x1c6>
    2988:	89 36       	cpi	r24, 0x69	; 105
    298a:	39 f5       	brne	.+78     	; 0x29da <vfprintf+0x214>
    298c:	f8 01       	movw	r30, r16
    298e:	37 fe       	sbrs	r3, 7
    2990:	07 c0       	rjmp	.+14     	; 0x29a0 <vfprintf+0x1da>
    2992:	60 81       	ld	r22, Z
    2994:	71 81       	ldd	r23, Z+1	; 0x01
    2996:	82 81       	ldd	r24, Z+2	; 0x02
    2998:	93 81       	ldd	r25, Z+3	; 0x03
    299a:	0c 5f       	subi	r16, 0xFC	; 252
    299c:	1f 4f       	sbci	r17, 0xFF	; 255
    299e:	08 c0       	rjmp	.+16     	; 0x29b0 <vfprintf+0x1ea>
    29a0:	60 81       	ld	r22, Z
    29a2:	71 81       	ldd	r23, Z+1	; 0x01
    29a4:	07 2e       	mov	r0, r23
    29a6:	00 0c       	add	r0, r0
    29a8:	88 0b       	sbc	r24, r24
    29aa:	99 0b       	sbc	r25, r25
    29ac:	0e 5f       	subi	r16, 0xFE	; 254
    29ae:	1f 4f       	sbci	r17, 0xFF	; 255
    29b0:	f3 2d       	mov	r31, r3
    29b2:	ff 76       	andi	r31, 0x6F	; 111
    29b4:	3f 2e       	mov	r3, r31
    29b6:	97 ff       	sbrs	r25, 7
    29b8:	09 c0       	rjmp	.+18     	; 0x29cc <vfprintf+0x206>
    29ba:	90 95       	com	r25
    29bc:	80 95       	com	r24
    29be:	70 95       	com	r23
    29c0:	61 95       	neg	r22
    29c2:	7f 4f       	sbci	r23, 0xFF	; 255
    29c4:	8f 4f       	sbci	r24, 0xFF	; 255
    29c6:	9f 4f       	sbci	r25, 0xFF	; 255
    29c8:	f0 68       	ori	r31, 0x80	; 128
    29ca:	3f 2e       	mov	r3, r31
    29cc:	2a e0       	ldi	r18, 0x0A	; 10
    29ce:	30 e0       	ldi	r19, 0x00	; 0
    29d0:	a3 01       	movw	r20, r6
    29d2:	80 d2       	rcall	.+1280   	; 0x2ed4 <__ultoa_invert>
    29d4:	88 2e       	mov	r8, r24
    29d6:	86 18       	sub	r8, r6
    29d8:	44 c0       	rjmp	.+136    	; 0x2a62 <vfprintf+0x29c>
    29da:	85 37       	cpi	r24, 0x75	; 117
    29dc:	31 f4       	brne	.+12     	; 0x29ea <vfprintf+0x224>
    29de:	23 2d       	mov	r18, r3
    29e0:	2f 7e       	andi	r18, 0xEF	; 239
    29e2:	b2 2e       	mov	r11, r18
    29e4:	2a e0       	ldi	r18, 0x0A	; 10
    29e6:	30 e0       	ldi	r19, 0x00	; 0
    29e8:	25 c0       	rjmp	.+74     	; 0x2a34 <vfprintf+0x26e>
    29ea:	93 2d       	mov	r25, r3
    29ec:	99 7f       	andi	r25, 0xF9	; 249
    29ee:	b9 2e       	mov	r11, r25
    29f0:	8f 36       	cpi	r24, 0x6F	; 111
    29f2:	c1 f0       	breq	.+48     	; 0x2a24 <vfprintf+0x25e>
    29f4:	18 f4       	brcc	.+6      	; 0x29fc <vfprintf+0x236>
    29f6:	88 35       	cpi	r24, 0x58	; 88
    29f8:	79 f0       	breq	.+30     	; 0x2a18 <vfprintf+0x252>
    29fa:	ae c0       	rjmp	.+348    	; 0x2b58 <vfprintf+0x392>
    29fc:	80 37       	cpi	r24, 0x70	; 112
    29fe:	19 f0       	breq	.+6      	; 0x2a06 <vfprintf+0x240>
    2a00:	88 37       	cpi	r24, 0x78	; 120
    2a02:	21 f0       	breq	.+8      	; 0x2a0c <vfprintf+0x246>
    2a04:	a9 c0       	rjmp	.+338    	; 0x2b58 <vfprintf+0x392>
    2a06:	e9 2f       	mov	r30, r25
    2a08:	e0 61       	ori	r30, 0x10	; 16
    2a0a:	be 2e       	mov	r11, r30
    2a0c:	b4 fe       	sbrs	r11, 4
    2a0e:	0d c0       	rjmp	.+26     	; 0x2a2a <vfprintf+0x264>
    2a10:	fb 2d       	mov	r31, r11
    2a12:	f4 60       	ori	r31, 0x04	; 4
    2a14:	bf 2e       	mov	r11, r31
    2a16:	09 c0       	rjmp	.+18     	; 0x2a2a <vfprintf+0x264>
    2a18:	34 fe       	sbrs	r3, 4
    2a1a:	0a c0       	rjmp	.+20     	; 0x2a30 <vfprintf+0x26a>
    2a1c:	29 2f       	mov	r18, r25
    2a1e:	26 60       	ori	r18, 0x06	; 6
    2a20:	b2 2e       	mov	r11, r18
    2a22:	06 c0       	rjmp	.+12     	; 0x2a30 <vfprintf+0x26a>
    2a24:	28 e0       	ldi	r18, 0x08	; 8
    2a26:	30 e0       	ldi	r19, 0x00	; 0
    2a28:	05 c0       	rjmp	.+10     	; 0x2a34 <vfprintf+0x26e>
    2a2a:	20 e1       	ldi	r18, 0x10	; 16
    2a2c:	30 e0       	ldi	r19, 0x00	; 0
    2a2e:	02 c0       	rjmp	.+4      	; 0x2a34 <vfprintf+0x26e>
    2a30:	20 e1       	ldi	r18, 0x10	; 16
    2a32:	32 e0       	ldi	r19, 0x02	; 2
    2a34:	f8 01       	movw	r30, r16
    2a36:	b7 fe       	sbrs	r11, 7
    2a38:	07 c0       	rjmp	.+14     	; 0x2a48 <vfprintf+0x282>
    2a3a:	60 81       	ld	r22, Z
    2a3c:	71 81       	ldd	r23, Z+1	; 0x01
    2a3e:	82 81       	ldd	r24, Z+2	; 0x02
    2a40:	93 81       	ldd	r25, Z+3	; 0x03
    2a42:	0c 5f       	subi	r16, 0xFC	; 252
    2a44:	1f 4f       	sbci	r17, 0xFF	; 255
    2a46:	06 c0       	rjmp	.+12     	; 0x2a54 <vfprintf+0x28e>
    2a48:	60 81       	ld	r22, Z
    2a4a:	71 81       	ldd	r23, Z+1	; 0x01
    2a4c:	80 e0       	ldi	r24, 0x00	; 0
    2a4e:	90 e0       	ldi	r25, 0x00	; 0
    2a50:	0e 5f       	subi	r16, 0xFE	; 254
    2a52:	1f 4f       	sbci	r17, 0xFF	; 255
    2a54:	a3 01       	movw	r20, r6
    2a56:	3e d2       	rcall	.+1148   	; 0x2ed4 <__ultoa_invert>
    2a58:	88 2e       	mov	r8, r24
    2a5a:	86 18       	sub	r8, r6
    2a5c:	fb 2d       	mov	r31, r11
    2a5e:	ff 77       	andi	r31, 0x7F	; 127
    2a60:	3f 2e       	mov	r3, r31
    2a62:	36 fe       	sbrs	r3, 6
    2a64:	0d c0       	rjmp	.+26     	; 0x2a80 <vfprintf+0x2ba>
    2a66:	23 2d       	mov	r18, r3
    2a68:	2e 7f       	andi	r18, 0xFE	; 254
    2a6a:	a2 2e       	mov	r10, r18
    2a6c:	89 14       	cp	r8, r9
    2a6e:	58 f4       	brcc	.+22     	; 0x2a86 <vfprintf+0x2c0>
    2a70:	34 fe       	sbrs	r3, 4
    2a72:	0b c0       	rjmp	.+22     	; 0x2a8a <vfprintf+0x2c4>
    2a74:	32 fc       	sbrc	r3, 2
    2a76:	09 c0       	rjmp	.+18     	; 0x2a8a <vfprintf+0x2c4>
    2a78:	83 2d       	mov	r24, r3
    2a7a:	8e 7e       	andi	r24, 0xEE	; 238
    2a7c:	a8 2e       	mov	r10, r24
    2a7e:	05 c0       	rjmp	.+10     	; 0x2a8a <vfprintf+0x2c4>
    2a80:	b8 2c       	mov	r11, r8
    2a82:	a3 2c       	mov	r10, r3
    2a84:	03 c0       	rjmp	.+6      	; 0x2a8c <vfprintf+0x2c6>
    2a86:	b8 2c       	mov	r11, r8
    2a88:	01 c0       	rjmp	.+2      	; 0x2a8c <vfprintf+0x2c6>
    2a8a:	b9 2c       	mov	r11, r9
    2a8c:	a4 fe       	sbrs	r10, 4
    2a8e:	0f c0       	rjmp	.+30     	; 0x2aae <vfprintf+0x2e8>
    2a90:	fe 01       	movw	r30, r28
    2a92:	e8 0d       	add	r30, r8
    2a94:	f1 1d       	adc	r31, r1
    2a96:	80 81       	ld	r24, Z
    2a98:	80 33       	cpi	r24, 0x30	; 48
    2a9a:	21 f4       	brne	.+8      	; 0x2aa4 <vfprintf+0x2de>
    2a9c:	9a 2d       	mov	r25, r10
    2a9e:	99 7e       	andi	r25, 0xE9	; 233
    2aa0:	a9 2e       	mov	r10, r25
    2aa2:	09 c0       	rjmp	.+18     	; 0x2ab6 <vfprintf+0x2f0>
    2aa4:	a2 fe       	sbrs	r10, 2
    2aa6:	06 c0       	rjmp	.+12     	; 0x2ab4 <vfprintf+0x2ee>
    2aa8:	b3 94       	inc	r11
    2aaa:	b3 94       	inc	r11
    2aac:	04 c0       	rjmp	.+8      	; 0x2ab6 <vfprintf+0x2f0>
    2aae:	8a 2d       	mov	r24, r10
    2ab0:	86 78       	andi	r24, 0x86	; 134
    2ab2:	09 f0       	breq	.+2      	; 0x2ab6 <vfprintf+0x2f0>
    2ab4:	b3 94       	inc	r11
    2ab6:	a3 fc       	sbrc	r10, 3
    2ab8:	10 c0       	rjmp	.+32     	; 0x2ada <vfprintf+0x314>
    2aba:	a0 fe       	sbrs	r10, 0
    2abc:	06 c0       	rjmp	.+12     	; 0x2aca <vfprintf+0x304>
    2abe:	b2 14       	cp	r11, r2
    2ac0:	80 f4       	brcc	.+32     	; 0x2ae2 <vfprintf+0x31c>
    2ac2:	28 0c       	add	r2, r8
    2ac4:	92 2c       	mov	r9, r2
    2ac6:	9b 18       	sub	r9, r11
    2ac8:	0d c0       	rjmp	.+26     	; 0x2ae4 <vfprintf+0x31e>
    2aca:	b2 14       	cp	r11, r2
    2acc:	58 f4       	brcc	.+22     	; 0x2ae4 <vfprintf+0x31e>
    2ace:	b6 01       	movw	r22, r12
    2ad0:	80 e2       	ldi	r24, 0x20	; 32
    2ad2:	90 e0       	ldi	r25, 0x00	; 0
    2ad4:	c3 d1       	rcall	.+902    	; 0x2e5c <fputc>
    2ad6:	b3 94       	inc	r11
    2ad8:	f8 cf       	rjmp	.-16     	; 0x2aca <vfprintf+0x304>
    2ada:	b2 14       	cp	r11, r2
    2adc:	18 f4       	brcc	.+6      	; 0x2ae4 <vfprintf+0x31e>
    2ade:	2b 18       	sub	r2, r11
    2ae0:	02 c0       	rjmp	.+4      	; 0x2ae6 <vfprintf+0x320>
    2ae2:	98 2c       	mov	r9, r8
    2ae4:	21 2c       	mov	r2, r1
    2ae6:	a4 fe       	sbrs	r10, 4
    2ae8:	0f c0       	rjmp	.+30     	; 0x2b08 <vfprintf+0x342>
    2aea:	b6 01       	movw	r22, r12
    2aec:	80 e3       	ldi	r24, 0x30	; 48
    2aee:	90 e0       	ldi	r25, 0x00	; 0
    2af0:	b5 d1       	rcall	.+874    	; 0x2e5c <fputc>
    2af2:	a2 fe       	sbrs	r10, 2
    2af4:	16 c0       	rjmp	.+44     	; 0x2b22 <vfprintf+0x35c>
    2af6:	a1 fc       	sbrc	r10, 1
    2af8:	03 c0       	rjmp	.+6      	; 0x2b00 <vfprintf+0x33a>
    2afa:	88 e7       	ldi	r24, 0x78	; 120
    2afc:	90 e0       	ldi	r25, 0x00	; 0
    2afe:	02 c0       	rjmp	.+4      	; 0x2b04 <vfprintf+0x33e>
    2b00:	88 e5       	ldi	r24, 0x58	; 88
    2b02:	90 e0       	ldi	r25, 0x00	; 0
    2b04:	b6 01       	movw	r22, r12
    2b06:	0c c0       	rjmp	.+24     	; 0x2b20 <vfprintf+0x35a>
    2b08:	8a 2d       	mov	r24, r10
    2b0a:	86 78       	andi	r24, 0x86	; 134
    2b0c:	51 f0       	breq	.+20     	; 0x2b22 <vfprintf+0x35c>
    2b0e:	a1 fe       	sbrs	r10, 1
    2b10:	02 c0       	rjmp	.+4      	; 0x2b16 <vfprintf+0x350>
    2b12:	8b e2       	ldi	r24, 0x2B	; 43
    2b14:	01 c0       	rjmp	.+2      	; 0x2b18 <vfprintf+0x352>
    2b16:	80 e2       	ldi	r24, 0x20	; 32
    2b18:	a7 fc       	sbrc	r10, 7
    2b1a:	8d e2       	ldi	r24, 0x2D	; 45
    2b1c:	b6 01       	movw	r22, r12
    2b1e:	90 e0       	ldi	r25, 0x00	; 0
    2b20:	9d d1       	rcall	.+826    	; 0x2e5c <fputc>
    2b22:	89 14       	cp	r8, r9
    2b24:	30 f4       	brcc	.+12     	; 0x2b32 <vfprintf+0x36c>
    2b26:	b6 01       	movw	r22, r12
    2b28:	80 e3       	ldi	r24, 0x30	; 48
    2b2a:	90 e0       	ldi	r25, 0x00	; 0
    2b2c:	97 d1       	rcall	.+814    	; 0x2e5c <fputc>
    2b2e:	9a 94       	dec	r9
    2b30:	f8 cf       	rjmp	.-16     	; 0x2b22 <vfprintf+0x35c>
    2b32:	8a 94       	dec	r8
    2b34:	f3 01       	movw	r30, r6
    2b36:	e8 0d       	add	r30, r8
    2b38:	f1 1d       	adc	r31, r1
    2b3a:	80 81       	ld	r24, Z
    2b3c:	b6 01       	movw	r22, r12
    2b3e:	90 e0       	ldi	r25, 0x00	; 0
    2b40:	8d d1       	rcall	.+794    	; 0x2e5c <fputc>
    2b42:	81 10       	cpse	r8, r1
    2b44:	f6 cf       	rjmp	.-20     	; 0x2b32 <vfprintf+0x36c>
    2b46:	22 20       	and	r2, r2
    2b48:	09 f4       	brne	.+2      	; 0x2b4c <vfprintf+0x386>
    2b4a:	4e ce       	rjmp	.-868    	; 0x27e8 <vfprintf+0x22>
    2b4c:	b6 01       	movw	r22, r12
    2b4e:	80 e2       	ldi	r24, 0x20	; 32
    2b50:	90 e0       	ldi	r25, 0x00	; 0
    2b52:	84 d1       	rcall	.+776    	; 0x2e5c <fputc>
    2b54:	2a 94       	dec	r2
    2b56:	f7 cf       	rjmp	.-18     	; 0x2b46 <vfprintf+0x380>
    2b58:	f6 01       	movw	r30, r12
    2b5a:	86 81       	ldd	r24, Z+6	; 0x06
    2b5c:	97 81       	ldd	r25, Z+7	; 0x07
    2b5e:	02 c0       	rjmp	.+4      	; 0x2b64 <vfprintf+0x39e>
    2b60:	8f ef       	ldi	r24, 0xFF	; 255
    2b62:	9f ef       	ldi	r25, 0xFF	; 255
    2b64:	2b 96       	adiw	r28, 0x0b	; 11
    2b66:	e2 e1       	ldi	r30, 0x12	; 18
    2b68:	6d c2       	rjmp	.+1242   	; 0x3044 <__epilogue_restores__>

00002b6a <strtod>:
    2b6a:	a0 e0       	ldi	r26, 0x00	; 0
    2b6c:	b0 e0       	ldi	r27, 0x00	; 0
    2b6e:	ea eb       	ldi	r30, 0xBA	; 186
    2b70:	f5 e1       	ldi	r31, 0x15	; 21
    2b72:	52 c2       	rjmp	.+1188   	; 0x3018 <__prologue_saves__+0xc>
    2b74:	ec 01       	movw	r28, r24
    2b76:	6b 01       	movw	r12, r22
    2b78:	61 15       	cp	r22, r1
    2b7a:	71 05       	cpc	r23, r1
    2b7c:	19 f0       	breq	.+6      	; 0x2b84 <strtod+0x1a>
    2b7e:	fb 01       	movw	r30, r22
    2b80:	91 83       	std	Z+1, r25	; 0x01
    2b82:	80 83       	st	Z, r24
    2b84:	7e 01       	movw	r14, r28
    2b86:	ff ef       	ldi	r31, 0xFF	; 255
    2b88:	ef 1a       	sub	r14, r31
    2b8a:	ff 0a       	sbc	r15, r31
    2b8c:	08 81       	ld	r16, Y
    2b8e:	80 2f       	mov	r24, r16
    2b90:	90 e0       	ldi	r25, 0x00	; 0
    2b92:	2e d1       	rcall	.+604    	; 0x2df0 <isspace>
    2b94:	89 2b       	or	r24, r25
    2b96:	11 f0       	breq	.+4      	; 0x2b9c <strtod+0x32>
    2b98:	e7 01       	movw	r28, r14
    2b9a:	f4 cf       	rjmp	.-24     	; 0x2b84 <strtod+0x1a>
    2b9c:	0d 32       	cpi	r16, 0x2D	; 45
    2b9e:	39 f4       	brne	.+14     	; 0x2bae <strtod+0x44>
    2ba0:	7e 01       	movw	r14, r28
    2ba2:	82 e0       	ldi	r24, 0x02	; 2
    2ba4:	e8 0e       	add	r14, r24
    2ba6:	f1 1c       	adc	r15, r1
    2ba8:	09 81       	ldd	r16, Y+1	; 0x01
    2baa:	11 e0       	ldi	r17, 0x01	; 1
    2bac:	08 c0       	rjmp	.+16     	; 0x2bbe <strtod+0x54>
    2bae:	0b 32       	cpi	r16, 0x2B	; 43
    2bb0:	29 f4       	brne	.+10     	; 0x2bbc <strtod+0x52>
    2bb2:	7e 01       	movw	r14, r28
    2bb4:	92 e0       	ldi	r25, 0x02	; 2
    2bb6:	e9 0e       	add	r14, r25
    2bb8:	f1 1c       	adc	r15, r1
    2bba:	09 81       	ldd	r16, Y+1	; 0x01
    2bbc:	10 e0       	ldi	r17, 0x00	; 0
    2bbe:	e7 01       	movw	r28, r14
    2bc0:	21 97       	sbiw	r28, 0x01	; 1
    2bc2:	43 e0       	ldi	r20, 0x03	; 3
    2bc4:	50 e0       	ldi	r21, 0x00	; 0
    2bc6:	64 eb       	ldi	r22, 0xB4	; 180
    2bc8:	70 e0       	ldi	r23, 0x00	; 0
    2bca:	ce 01       	movw	r24, r28
    2bcc:	19 d1       	rcall	.+562    	; 0x2e00 <strncasecmp_P>
    2bce:	89 2b       	or	r24, r25
    2bd0:	b9 f4       	brne	.+46     	; 0x2c00 <strtod+0x96>
    2bd2:	23 96       	adiw	r28, 0x03	; 3
    2bd4:	45 e0       	ldi	r20, 0x05	; 5
    2bd6:	50 e0       	ldi	r21, 0x00	; 0
    2bd8:	6f ea       	ldi	r22, 0xAF	; 175
    2bda:	70 e0       	ldi	r23, 0x00	; 0
    2bdc:	ce 01       	movw	r24, r28
    2bde:	10 d1       	rcall	.+544    	; 0x2e00 <strncasecmp_P>
    2be0:	89 2b       	or	r24, r25
    2be2:	09 f4       	brne	.+2      	; 0x2be6 <strtod+0x7c>
    2be4:	25 96       	adiw	r28, 0x05	; 5
    2be6:	c1 14       	cp	r12, r1
    2be8:	d1 04       	cpc	r13, r1
    2bea:	19 f0       	breq	.+6      	; 0x2bf2 <strtod+0x88>
    2bec:	f6 01       	movw	r30, r12
    2bee:	d1 83       	std	Z+1, r29	; 0x01
    2bf0:	c0 83       	st	Z, r28
    2bf2:	11 11       	cpse	r17, r1
    2bf4:	f0 c0       	rjmp	.+480    	; 0x2dd6 <strtod+0x26c>
    2bf6:	60 e0       	ldi	r22, 0x00	; 0
    2bf8:	70 e0       	ldi	r23, 0x00	; 0
    2bfa:	80 e8       	ldi	r24, 0x80	; 128
    2bfc:	9f e7       	ldi	r25, 0x7F	; 127
    2bfe:	f4 c0       	rjmp	.+488    	; 0x2de8 <strtod+0x27e>
    2c00:	43 e0       	ldi	r20, 0x03	; 3
    2c02:	50 e0       	ldi	r21, 0x00	; 0
    2c04:	6c ea       	ldi	r22, 0xAC	; 172
    2c06:	70 e0       	ldi	r23, 0x00	; 0
    2c08:	ce 01       	movw	r24, r28
    2c0a:	fa d0       	rcall	.+500    	; 0x2e00 <strncasecmp_P>
    2c0c:	89 2b       	or	r24, r25
    2c0e:	59 f4       	brne	.+22     	; 0x2c26 <strtod+0xbc>
    2c10:	c1 14       	cp	r12, r1
    2c12:	d1 04       	cpc	r13, r1
    2c14:	09 f4       	brne	.+2      	; 0x2c18 <strtod+0xae>
    2c16:	e4 c0       	rjmp	.+456    	; 0x2de0 <strtod+0x276>
    2c18:	f2 e0       	ldi	r31, 0x02	; 2
    2c1a:	ef 0e       	add	r14, r31
    2c1c:	f1 1c       	adc	r15, r1
    2c1e:	f6 01       	movw	r30, r12
    2c20:	f1 82       	std	Z+1, r15	; 0x01
    2c22:	e0 82       	st	Z, r14
    2c24:	dd c0       	rjmp	.+442    	; 0x2de0 <strtod+0x276>
    2c26:	20 e0       	ldi	r18, 0x00	; 0
    2c28:	30 e0       	ldi	r19, 0x00	; 0
    2c2a:	a9 01       	movw	r20, r18
    2c2c:	c0 e0       	ldi	r28, 0x00	; 0
    2c2e:	d0 e0       	ldi	r29, 0x00	; 0
    2c30:	f7 01       	movw	r30, r14
    2c32:	80 ed       	ldi	r24, 0xD0	; 208
    2c34:	a8 2e       	mov	r10, r24
    2c36:	a0 0e       	add	r10, r16
    2c38:	89 e0       	ldi	r24, 0x09	; 9
    2c3a:	8a 15       	cp	r24, r10
    2c3c:	28 f1       	brcs	.+74     	; 0x2c88 <strtod+0x11e>
    2c3e:	91 2f       	mov	r25, r17
    2c40:	92 60       	ori	r25, 0x02	; 2
    2c42:	b9 2e       	mov	r11, r25
    2c44:	81 2f       	mov	r24, r17
    2c46:	88 70       	andi	r24, 0x08	; 8
    2c48:	12 ff       	sbrs	r17, 2
    2c4a:	04 c0       	rjmp	.+8      	; 0x2c54 <strtod+0xea>
    2c4c:	81 11       	cpse	r24, r1
    2c4e:	23 c0       	rjmp	.+70     	; 0x2c96 <strtod+0x12c>
    2c50:	21 96       	adiw	r28, 0x01	; 1
    2c52:	21 c0       	rjmp	.+66     	; 0x2c96 <strtod+0x12c>
    2c54:	81 11       	cpse	r24, r1
    2c56:	21 97       	sbiw	r28, 0x01	; 1
    2c58:	a5 e0       	ldi	r26, 0x05	; 5
    2c5a:	b0 e0       	ldi	r27, 0x00	; 0
    2c5c:	cd d1       	rcall	.+922    	; 0x2ff8 <__muluhisi3>
    2c5e:	dc 01       	movw	r26, r24
    2c60:	cb 01       	movw	r24, r22
    2c62:	88 0f       	add	r24, r24
    2c64:	99 1f       	adc	r25, r25
    2c66:	aa 1f       	adc	r26, r26
    2c68:	bb 1f       	adc	r27, r27
    2c6a:	9c 01       	movw	r18, r24
    2c6c:	ad 01       	movw	r20, r26
    2c6e:	2a 0d       	add	r18, r10
    2c70:	31 1d       	adc	r19, r1
    2c72:	41 1d       	adc	r20, r1
    2c74:	51 1d       	adc	r21, r1
    2c76:	28 39       	cpi	r18, 0x98	; 152
    2c78:	89 e9       	ldi	r24, 0x99	; 153
    2c7a:	38 07       	cpc	r19, r24
    2c7c:	48 07       	cpc	r20, r24
    2c7e:	89 e1       	ldi	r24, 0x19	; 25
    2c80:	58 07       	cpc	r21, r24
    2c82:	48 f0       	brcs	.+18     	; 0x2c96 <strtod+0x12c>
    2c84:	16 60       	ori	r17, 0x06	; 6
    2c86:	06 c0       	rjmp	.+12     	; 0x2c94 <strtod+0x12a>
    2c88:	9e ef       	ldi	r25, 0xFE	; 254
    2c8a:	a9 12       	cpse	r10, r25
    2c8c:	0a c0       	rjmp	.+20     	; 0x2ca2 <strtod+0x138>
    2c8e:	13 fd       	sbrc	r17, 3
    2c90:	40 c0       	rjmp	.+128    	; 0x2d12 <strtod+0x1a8>
    2c92:	18 60       	ori	r17, 0x08	; 8
    2c94:	b1 2e       	mov	r11, r17
    2c96:	8f ef       	ldi	r24, 0xFF	; 255
    2c98:	e8 1a       	sub	r14, r24
    2c9a:	f8 0a       	sbc	r15, r24
    2c9c:	00 81       	ld	r16, Z
    2c9e:	1b 2d       	mov	r17, r11
    2ca0:	c7 cf       	rjmp	.-114    	; 0x2c30 <strtod+0xc6>
    2ca2:	80 2f       	mov	r24, r16
    2ca4:	8f 7d       	andi	r24, 0xDF	; 223
    2ca6:	85 34       	cpi	r24, 0x45	; 69
    2ca8:	a1 f5       	brne	.+104    	; 0x2d12 <strtod+0x1a8>
    2caa:	80 81       	ld	r24, Z
    2cac:	8d 32       	cpi	r24, 0x2D	; 45
    2cae:	11 f4       	brne	.+4      	; 0x2cb4 <strtod+0x14a>
    2cb0:	10 61       	ori	r17, 0x10	; 16
    2cb2:	06 c0       	rjmp	.+12     	; 0x2cc0 <strtod+0x156>
    2cb4:	8b 32       	cpi	r24, 0x2B	; 43
    2cb6:	21 f0       	breq	.+8      	; 0x2cc0 <strtod+0x156>
    2cb8:	31 96       	adiw	r30, 0x01	; 1
    2cba:	61 e0       	ldi	r22, 0x01	; 1
    2cbc:	70 e0       	ldi	r23, 0x00	; 0
    2cbe:	04 c0       	rjmp	.+8      	; 0x2cc8 <strtod+0x15e>
    2cc0:	81 81       	ldd	r24, Z+1	; 0x01
    2cc2:	32 96       	adiw	r30, 0x02	; 2
    2cc4:	62 e0       	ldi	r22, 0x02	; 2
    2cc6:	70 e0       	ldi	r23, 0x00	; 0
    2cc8:	80 53       	subi	r24, 0x30	; 48
    2cca:	8a 30       	cpi	r24, 0x0A	; 10
    2ccc:	18 f0       	brcs	.+6      	; 0x2cd4 <strtod+0x16a>
    2cce:	e6 1b       	sub	r30, r22
    2cd0:	f7 0b       	sbc	r31, r23
    2cd2:	1f c0       	rjmp	.+62     	; 0x2d12 <strtod+0x1a8>
    2cd4:	60 e0       	ldi	r22, 0x00	; 0
    2cd6:	70 e0       	ldi	r23, 0x00	; 0
    2cd8:	60 38       	cpi	r22, 0x80	; 128
    2cda:	9c e0       	ldi	r25, 0x0C	; 12
    2cdc:	79 07       	cpc	r23, r25
    2cde:	5c f4       	brge	.+22     	; 0x2cf6 <strtod+0x18c>
    2ce0:	db 01       	movw	r26, r22
    2ce2:	aa 0f       	add	r26, r26
    2ce4:	bb 1f       	adc	r27, r27
    2ce6:	aa 0f       	add	r26, r26
    2ce8:	bb 1f       	adc	r27, r27
    2cea:	6a 0f       	add	r22, r26
    2cec:	7b 1f       	adc	r23, r27
    2cee:	66 0f       	add	r22, r22
    2cf0:	77 1f       	adc	r23, r23
    2cf2:	68 0f       	add	r22, r24
    2cf4:	71 1d       	adc	r23, r1
    2cf6:	31 96       	adiw	r30, 0x01	; 1
    2cf8:	df 01       	movw	r26, r30
    2cfa:	11 97       	sbiw	r26, 0x01	; 1
    2cfc:	8c 91       	ld	r24, X
    2cfe:	80 53       	subi	r24, 0x30	; 48
    2d00:	8a 30       	cpi	r24, 0x0A	; 10
    2d02:	50 f3       	brcs	.-44     	; 0x2cd8 <strtod+0x16e>
    2d04:	14 ff       	sbrs	r17, 4
    2d06:	03 c0       	rjmp	.+6      	; 0x2d0e <strtod+0x1a4>
    2d08:	71 95       	neg	r23
    2d0a:	61 95       	neg	r22
    2d0c:	71 09       	sbc	r23, r1
    2d0e:	c6 0f       	add	r28, r22
    2d10:	d7 1f       	adc	r29, r23
    2d12:	11 ff       	sbrs	r17, 1
    2d14:	08 c0       	rjmp	.+16     	; 0x2d26 <strtod+0x1bc>
    2d16:	c1 14       	cp	r12, r1
    2d18:	d1 04       	cpc	r13, r1
    2d1a:	29 f0       	breq	.+10     	; 0x2d26 <strtod+0x1bc>
    2d1c:	cf 01       	movw	r24, r30
    2d1e:	01 97       	sbiw	r24, 0x01	; 1
    2d20:	f6 01       	movw	r30, r12
    2d22:	91 83       	std	Z+1, r25	; 0x01
    2d24:	80 83       	st	Z, r24
    2d26:	ca 01       	movw	r24, r20
    2d28:	b9 01       	movw	r22, r18
    2d2a:	b9 db       	rcall	.-2190   	; 0x249e <__floatunsisf>
    2d2c:	21 2f       	mov	r18, r17
    2d2e:	23 70       	andi	r18, 0x03	; 3
    2d30:	23 30       	cpi	r18, 0x03	; 3
    2d32:	19 f0       	breq	.+6      	; 0x2d3a <strtod+0x1d0>
    2d34:	4b 01       	movw	r8, r22
    2d36:	5c 01       	movw	r10, r24
    2d38:	06 c0       	rjmp	.+12     	; 0x2d46 <strtod+0x1dc>
    2d3a:	4b 01       	movw	r8, r22
    2d3c:	5c 01       	movw	r10, r24
    2d3e:	b7 fa       	bst	r11, 7
    2d40:	b0 94       	com	r11
    2d42:	b7 f8       	bld	r11, 7
    2d44:	b0 94       	com	r11
    2d46:	20 e0       	ldi	r18, 0x00	; 0
    2d48:	30 e0       	ldi	r19, 0x00	; 0
    2d4a:	a9 01       	movw	r20, r18
    2d4c:	c5 01       	movw	r24, r10
    2d4e:	b4 01       	movw	r22, r8
    2d50:	09 db       	rcall	.-2542   	; 0x2364 <__cmpsf2>
    2d52:	88 23       	and	r24, r24
    2d54:	09 f4       	brne	.+2      	; 0x2d58 <strtod+0x1ee>
    2d56:	3c c0       	rjmp	.+120    	; 0x2dd0 <strtod+0x266>
    2d58:	d7 ff       	sbrs	r29, 7
    2d5a:	06 c0       	rjmp	.+12     	; 0x2d68 <strtod+0x1fe>
    2d5c:	d1 95       	neg	r29
    2d5e:	c1 95       	neg	r28
    2d60:	d1 09       	sbc	r29, r1
    2d62:	0b ec       	ldi	r16, 0xCB	; 203
    2d64:	10 e0       	ldi	r17, 0x00	; 0
    2d66:	02 c0       	rjmp	.+4      	; 0x2d6c <strtod+0x202>
    2d68:	03 ee       	ldi	r16, 0xE3	; 227
    2d6a:	10 e0       	ldi	r17, 0x00	; 0
    2d6c:	68 01       	movw	r12, r16
    2d6e:	f8 e1       	ldi	r31, 0x18	; 24
    2d70:	cf 1a       	sub	r12, r31
    2d72:	d1 08       	sbc	r13, r1
    2d74:	90 e2       	ldi	r25, 0x20	; 32
    2d76:	e9 2e       	mov	r14, r25
    2d78:	f1 2c       	mov	r15, r1
    2d7a:	ce 15       	cp	r28, r14
    2d7c:	df 05       	cpc	r29, r15
    2d7e:	6c f0       	brlt	.+26     	; 0x2d9a <strtod+0x230>
    2d80:	f8 01       	movw	r30, r16
    2d82:	25 91       	lpm	r18, Z+
    2d84:	35 91       	lpm	r19, Z+
    2d86:	45 91       	lpm	r20, Z+
    2d88:	54 91       	lpm	r21, Z
    2d8a:	c5 01       	movw	r24, r10
    2d8c:	b4 01       	movw	r22, r8
    2d8e:	3d dc       	rcall	.-1926   	; 0x260a <__mulsf3>
    2d90:	4b 01       	movw	r8, r22
    2d92:	5c 01       	movw	r10, r24
    2d94:	ce 19       	sub	r28, r14
    2d96:	df 09       	sbc	r29, r15
    2d98:	f0 cf       	rjmp	.-32     	; 0x2d7a <strtod+0x210>
    2d9a:	04 50       	subi	r16, 0x04	; 4
    2d9c:	11 09       	sbc	r17, r1
    2d9e:	f5 94       	asr	r15
    2da0:	e7 94       	ror	r14
    2da2:	0c 15       	cp	r16, r12
    2da4:	1d 05       	cpc	r17, r13
    2da6:	49 f7       	brne	.-46     	; 0x2d7a <strtod+0x210>
    2da8:	8a 2d       	mov	r24, r10
    2daa:	88 0f       	add	r24, r24
    2dac:	8b 2d       	mov	r24, r11
    2dae:	88 1f       	adc	r24, r24
    2db0:	8f 3f       	cpi	r24, 0xFF	; 255
    2db2:	41 f0       	breq	.+16     	; 0x2dc4 <strtod+0x25a>
    2db4:	20 e0       	ldi	r18, 0x00	; 0
    2db6:	30 e0       	ldi	r19, 0x00	; 0
    2db8:	a9 01       	movw	r20, r18
    2dba:	c5 01       	movw	r24, r10
    2dbc:	b4 01       	movw	r22, r8
    2dbe:	d2 da       	rcall	.-2652   	; 0x2364 <__cmpsf2>
    2dc0:	81 11       	cpse	r24, r1
    2dc2:	06 c0       	rjmp	.+12     	; 0x2dd0 <strtod+0x266>
    2dc4:	82 e2       	ldi	r24, 0x22	; 34
    2dc6:	90 e0       	ldi	r25, 0x00	; 0
    2dc8:	90 93 4b 02 	sts	0x024B, r25	; 0x80024b <errno+0x1>
    2dcc:	80 93 4a 02 	sts	0x024A, r24	; 0x80024a <errno>
    2dd0:	c5 01       	movw	r24, r10
    2dd2:	b4 01       	movw	r22, r8
    2dd4:	09 c0       	rjmp	.+18     	; 0x2de8 <strtod+0x27e>
    2dd6:	60 e0       	ldi	r22, 0x00	; 0
    2dd8:	70 e0       	ldi	r23, 0x00	; 0
    2dda:	80 e8       	ldi	r24, 0x80	; 128
    2ddc:	9f ef       	ldi	r25, 0xFF	; 255
    2dde:	04 c0       	rjmp	.+8      	; 0x2de8 <strtod+0x27e>
    2de0:	60 e0       	ldi	r22, 0x00	; 0
    2de2:	70 e0       	ldi	r23, 0x00	; 0
    2de4:	80 ec       	ldi	r24, 0xC0	; 192
    2de6:	9f e7       	ldi	r25, 0x7F	; 127
    2de8:	cd b7       	in	r28, 0x3d	; 61
    2dea:	de b7       	in	r29, 0x3e	; 62
    2dec:	ec e0       	ldi	r30, 0x0C	; 12
    2dee:	30 c1       	rjmp	.+608    	; 0x3050 <__epilogue_restores__+0xc>

00002df0 <isspace>:
    2df0:	91 11       	cpse	r25, r1
    2df2:	ce c0       	rjmp	.+412    	; 0x2f90 <__ctype_isfalse>
    2df4:	80 32       	cpi	r24, 0x20	; 32
    2df6:	19 f0       	breq	.+6      	; 0x2dfe <isspace+0xe>
    2df8:	89 50       	subi	r24, 0x09	; 9
    2dfa:	85 50       	subi	r24, 0x05	; 5
    2dfc:	d0 f7       	brcc	.-12     	; 0x2df2 <isspace+0x2>
    2dfe:	08 95       	ret

00002e00 <strncasecmp_P>:
    2e00:	fb 01       	movw	r30, r22
    2e02:	dc 01       	movw	r26, r24
    2e04:	41 50       	subi	r20, 0x01	; 1
    2e06:	50 40       	sbci	r21, 0x00	; 0
    2e08:	88 f0       	brcs	.+34     	; 0x2e2c <strncasecmp_P+0x2c>
    2e0a:	8d 91       	ld	r24, X+
    2e0c:	81 34       	cpi	r24, 0x41	; 65
    2e0e:	1c f0       	brlt	.+6      	; 0x2e16 <strncasecmp_P+0x16>
    2e10:	8b 35       	cpi	r24, 0x5B	; 91
    2e12:	0c f4       	brge	.+2      	; 0x2e16 <strncasecmp_P+0x16>
    2e14:	80 5e       	subi	r24, 0xE0	; 224
    2e16:	65 91       	lpm	r22, Z+
    2e18:	61 34       	cpi	r22, 0x41	; 65
    2e1a:	1c f0       	brlt	.+6      	; 0x2e22 <strncasecmp_P+0x22>
    2e1c:	6b 35       	cpi	r22, 0x5B	; 91
    2e1e:	0c f4       	brge	.+2      	; 0x2e22 <strncasecmp_P+0x22>
    2e20:	60 5e       	subi	r22, 0xE0	; 224
    2e22:	86 1b       	sub	r24, r22
    2e24:	61 11       	cpse	r22, r1
    2e26:	71 f3       	breq	.-36     	; 0x2e04 <strncasecmp_P+0x4>
    2e28:	99 0b       	sbc	r25, r25
    2e2a:	08 95       	ret
    2e2c:	88 1b       	sub	r24, r24
    2e2e:	fc cf       	rjmp	.-8      	; 0x2e28 <strncasecmp_P+0x28>

00002e30 <strnlen_P>:
    2e30:	fc 01       	movw	r30, r24
    2e32:	05 90       	lpm	r0, Z+
    2e34:	61 50       	subi	r22, 0x01	; 1
    2e36:	70 40       	sbci	r23, 0x00	; 0
    2e38:	01 10       	cpse	r0, r1
    2e3a:	d8 f7       	brcc	.-10     	; 0x2e32 <strnlen_P+0x2>
    2e3c:	80 95       	com	r24
    2e3e:	90 95       	com	r25
    2e40:	8e 0f       	add	r24, r30
    2e42:	9f 1f       	adc	r25, r31
    2e44:	08 95       	ret

00002e46 <strnlen>:
    2e46:	fc 01       	movw	r30, r24
    2e48:	61 50       	subi	r22, 0x01	; 1
    2e4a:	70 40       	sbci	r23, 0x00	; 0
    2e4c:	01 90       	ld	r0, Z+
    2e4e:	01 10       	cpse	r0, r1
    2e50:	d8 f7       	brcc	.-10     	; 0x2e48 <strnlen+0x2>
    2e52:	80 95       	com	r24
    2e54:	90 95       	com	r25
    2e56:	8e 0f       	add	r24, r30
    2e58:	9f 1f       	adc	r25, r31
    2e5a:	08 95       	ret

00002e5c <fputc>:
    2e5c:	0f 93       	push	r16
    2e5e:	1f 93       	push	r17
    2e60:	cf 93       	push	r28
    2e62:	df 93       	push	r29
    2e64:	fb 01       	movw	r30, r22
    2e66:	23 81       	ldd	r18, Z+3	; 0x03
    2e68:	21 fd       	sbrc	r18, 1
    2e6a:	03 c0       	rjmp	.+6      	; 0x2e72 <fputc+0x16>
    2e6c:	8f ef       	ldi	r24, 0xFF	; 255
    2e6e:	9f ef       	ldi	r25, 0xFF	; 255
    2e70:	2c c0       	rjmp	.+88     	; 0x2eca <fputc+0x6e>
    2e72:	22 ff       	sbrs	r18, 2
    2e74:	16 c0       	rjmp	.+44     	; 0x2ea2 <fputc+0x46>
    2e76:	46 81       	ldd	r20, Z+6	; 0x06
    2e78:	57 81       	ldd	r21, Z+7	; 0x07
    2e7a:	24 81       	ldd	r18, Z+4	; 0x04
    2e7c:	35 81       	ldd	r19, Z+5	; 0x05
    2e7e:	42 17       	cp	r20, r18
    2e80:	53 07       	cpc	r21, r19
    2e82:	44 f4       	brge	.+16     	; 0x2e94 <fputc+0x38>
    2e84:	a0 81       	ld	r26, Z
    2e86:	b1 81       	ldd	r27, Z+1	; 0x01
    2e88:	9d 01       	movw	r18, r26
    2e8a:	2f 5f       	subi	r18, 0xFF	; 255
    2e8c:	3f 4f       	sbci	r19, 0xFF	; 255
    2e8e:	31 83       	std	Z+1, r19	; 0x01
    2e90:	20 83       	st	Z, r18
    2e92:	8c 93       	st	X, r24
    2e94:	26 81       	ldd	r18, Z+6	; 0x06
    2e96:	37 81       	ldd	r19, Z+7	; 0x07
    2e98:	2f 5f       	subi	r18, 0xFF	; 255
    2e9a:	3f 4f       	sbci	r19, 0xFF	; 255
    2e9c:	37 83       	std	Z+7, r19	; 0x07
    2e9e:	26 83       	std	Z+6, r18	; 0x06
    2ea0:	14 c0       	rjmp	.+40     	; 0x2eca <fputc+0x6e>
    2ea2:	8b 01       	movw	r16, r22
    2ea4:	ec 01       	movw	r28, r24
    2ea6:	fb 01       	movw	r30, r22
    2ea8:	00 84       	ldd	r0, Z+8	; 0x08
    2eaa:	f1 85       	ldd	r31, Z+9	; 0x09
    2eac:	e0 2d       	mov	r30, r0
    2eae:	09 95       	icall
    2eb0:	89 2b       	or	r24, r25
    2eb2:	e1 f6       	brne	.-72     	; 0x2e6c <fputc+0x10>
    2eb4:	d8 01       	movw	r26, r16
    2eb6:	16 96       	adiw	r26, 0x06	; 6
    2eb8:	8d 91       	ld	r24, X+
    2eba:	9c 91       	ld	r25, X
    2ebc:	17 97       	sbiw	r26, 0x07	; 7
    2ebe:	01 96       	adiw	r24, 0x01	; 1
    2ec0:	17 96       	adiw	r26, 0x07	; 7
    2ec2:	9c 93       	st	X, r25
    2ec4:	8e 93       	st	-X, r24
    2ec6:	16 97       	sbiw	r26, 0x06	; 6
    2ec8:	ce 01       	movw	r24, r28
    2eca:	df 91       	pop	r29
    2ecc:	cf 91       	pop	r28
    2ece:	1f 91       	pop	r17
    2ed0:	0f 91       	pop	r16
    2ed2:	08 95       	ret

00002ed4 <__ultoa_invert>:
    2ed4:	fa 01       	movw	r30, r20
    2ed6:	aa 27       	eor	r26, r26
    2ed8:	28 30       	cpi	r18, 0x08	; 8
    2eda:	51 f1       	breq	.+84     	; 0x2f30 <__ultoa_invert+0x5c>
    2edc:	20 31       	cpi	r18, 0x10	; 16
    2ede:	81 f1       	breq	.+96     	; 0x2f40 <__ultoa_invert+0x6c>
    2ee0:	e8 94       	clt
    2ee2:	6f 93       	push	r22
    2ee4:	6e 7f       	andi	r22, 0xFE	; 254
    2ee6:	6e 5f       	subi	r22, 0xFE	; 254
    2ee8:	7f 4f       	sbci	r23, 0xFF	; 255
    2eea:	8f 4f       	sbci	r24, 0xFF	; 255
    2eec:	9f 4f       	sbci	r25, 0xFF	; 255
    2eee:	af 4f       	sbci	r26, 0xFF	; 255
    2ef0:	b1 e0       	ldi	r27, 0x01	; 1
    2ef2:	3e d0       	rcall	.+124    	; 0x2f70 <__ultoa_invert+0x9c>
    2ef4:	b4 e0       	ldi	r27, 0x04	; 4
    2ef6:	3c d0       	rcall	.+120    	; 0x2f70 <__ultoa_invert+0x9c>
    2ef8:	67 0f       	add	r22, r23
    2efa:	78 1f       	adc	r23, r24
    2efc:	89 1f       	adc	r24, r25
    2efe:	9a 1f       	adc	r25, r26
    2f00:	a1 1d       	adc	r26, r1
    2f02:	68 0f       	add	r22, r24
    2f04:	79 1f       	adc	r23, r25
    2f06:	8a 1f       	adc	r24, r26
    2f08:	91 1d       	adc	r25, r1
    2f0a:	a1 1d       	adc	r26, r1
    2f0c:	6a 0f       	add	r22, r26
    2f0e:	71 1d       	adc	r23, r1
    2f10:	81 1d       	adc	r24, r1
    2f12:	91 1d       	adc	r25, r1
    2f14:	a1 1d       	adc	r26, r1
    2f16:	20 d0       	rcall	.+64     	; 0x2f58 <__ultoa_invert+0x84>
    2f18:	09 f4       	brne	.+2      	; 0x2f1c <__ultoa_invert+0x48>
    2f1a:	68 94       	set
    2f1c:	3f 91       	pop	r19
    2f1e:	2a e0       	ldi	r18, 0x0A	; 10
    2f20:	26 9f       	mul	r18, r22
    2f22:	11 24       	eor	r1, r1
    2f24:	30 19       	sub	r19, r0
    2f26:	30 5d       	subi	r19, 0xD0	; 208
    2f28:	31 93       	st	Z+, r19
    2f2a:	de f6       	brtc	.-74     	; 0x2ee2 <__ultoa_invert+0xe>
    2f2c:	cf 01       	movw	r24, r30
    2f2e:	08 95       	ret
    2f30:	46 2f       	mov	r20, r22
    2f32:	47 70       	andi	r20, 0x07	; 7
    2f34:	40 5d       	subi	r20, 0xD0	; 208
    2f36:	41 93       	st	Z+, r20
    2f38:	b3 e0       	ldi	r27, 0x03	; 3
    2f3a:	0f d0       	rcall	.+30     	; 0x2f5a <__ultoa_invert+0x86>
    2f3c:	c9 f7       	brne	.-14     	; 0x2f30 <__ultoa_invert+0x5c>
    2f3e:	f6 cf       	rjmp	.-20     	; 0x2f2c <__ultoa_invert+0x58>
    2f40:	46 2f       	mov	r20, r22
    2f42:	4f 70       	andi	r20, 0x0F	; 15
    2f44:	40 5d       	subi	r20, 0xD0	; 208
    2f46:	4a 33       	cpi	r20, 0x3A	; 58
    2f48:	18 f0       	brcs	.+6      	; 0x2f50 <__ultoa_invert+0x7c>
    2f4a:	49 5d       	subi	r20, 0xD9	; 217
    2f4c:	31 fd       	sbrc	r19, 1
    2f4e:	40 52       	subi	r20, 0x20	; 32
    2f50:	41 93       	st	Z+, r20
    2f52:	02 d0       	rcall	.+4      	; 0x2f58 <__ultoa_invert+0x84>
    2f54:	a9 f7       	brne	.-22     	; 0x2f40 <__ultoa_invert+0x6c>
    2f56:	ea cf       	rjmp	.-44     	; 0x2f2c <__ultoa_invert+0x58>
    2f58:	b4 e0       	ldi	r27, 0x04	; 4
    2f5a:	a6 95       	lsr	r26
    2f5c:	97 95       	ror	r25
    2f5e:	87 95       	ror	r24
    2f60:	77 95       	ror	r23
    2f62:	67 95       	ror	r22
    2f64:	ba 95       	dec	r27
    2f66:	c9 f7       	brne	.-14     	; 0x2f5a <__ultoa_invert+0x86>
    2f68:	00 97       	sbiw	r24, 0x00	; 0
    2f6a:	61 05       	cpc	r22, r1
    2f6c:	71 05       	cpc	r23, r1
    2f6e:	08 95       	ret
    2f70:	9b 01       	movw	r18, r22
    2f72:	ac 01       	movw	r20, r24
    2f74:	0a 2e       	mov	r0, r26
    2f76:	06 94       	lsr	r0
    2f78:	57 95       	ror	r21
    2f7a:	47 95       	ror	r20
    2f7c:	37 95       	ror	r19
    2f7e:	27 95       	ror	r18
    2f80:	ba 95       	dec	r27
    2f82:	c9 f7       	brne	.-14     	; 0x2f76 <__ultoa_invert+0xa2>
    2f84:	62 0f       	add	r22, r18
    2f86:	73 1f       	adc	r23, r19
    2f88:	84 1f       	adc	r24, r20
    2f8a:	95 1f       	adc	r25, r21
    2f8c:	a0 1d       	adc	r26, r0
    2f8e:	08 95       	ret

00002f90 <__ctype_isfalse>:
    2f90:	99 27       	eor	r25, r25
    2f92:	88 27       	eor	r24, r24

00002f94 <__ctype_istrue>:
    2f94:	08 95       	ret

00002f96 <eeprom_read_block>:
    2f96:	dc 01       	movw	r26, r24
    2f98:	cb 01       	movw	r24, r22

00002f9a <eeprom_read_blraw>:
    2f9a:	fc 01       	movw	r30, r24
    2f9c:	f9 99       	sbic	0x1f, 1	; 31
    2f9e:	fe cf       	rjmp	.-4      	; 0x2f9c <eeprom_read_blraw+0x2>
    2fa0:	06 c0       	rjmp	.+12     	; 0x2fae <eeprom_read_blraw+0x14>
    2fa2:	f2 bd       	out	0x22, r31	; 34
    2fa4:	e1 bd       	out	0x21, r30	; 33
    2fa6:	f8 9a       	sbi	0x1f, 0	; 31
    2fa8:	31 96       	adiw	r30, 0x01	; 1
    2faa:	00 b4       	in	r0, 0x20	; 32
    2fac:	0d 92       	st	X+, r0
    2fae:	41 50       	subi	r20, 0x01	; 1
    2fb0:	50 40       	sbci	r21, 0x00	; 0
    2fb2:	b8 f7       	brcc	.-18     	; 0x2fa2 <eeprom_read_blraw+0x8>
    2fb4:	08 95       	ret

00002fb6 <eeprom_update_block>:
    2fb6:	dc 01       	movw	r26, r24
    2fb8:	a4 0f       	add	r26, r20
    2fba:	b5 1f       	adc	r27, r21
    2fbc:	41 50       	subi	r20, 0x01	; 1
    2fbe:	50 40       	sbci	r21, 0x00	; 0
    2fc0:	40 f0       	brcs	.+16     	; 0x2fd2 <eeprom_update_block+0x1c>
    2fc2:	cb 01       	movw	r24, r22
    2fc4:	84 0f       	add	r24, r20
    2fc6:	95 1f       	adc	r25, r21
    2fc8:	2e 91       	ld	r18, -X
    2fca:	05 d0       	rcall	.+10     	; 0x2fd6 <eeprom_update_r18>
    2fcc:	41 50       	subi	r20, 0x01	; 1
    2fce:	50 40       	sbci	r21, 0x00	; 0
    2fd0:	d8 f7       	brcc	.-10     	; 0x2fc8 <eeprom_update_block+0x12>
    2fd2:	08 95       	ret

00002fd4 <eeprom_update_byte>:
    2fd4:	26 2f       	mov	r18, r22

00002fd6 <eeprom_update_r18>:
    2fd6:	f9 99       	sbic	0x1f, 1	; 31
    2fd8:	fe cf       	rjmp	.-4      	; 0x2fd6 <eeprom_update_r18>
    2fda:	92 bd       	out	0x22, r25	; 34
    2fdc:	81 bd       	out	0x21, r24	; 33
    2fde:	f8 9a       	sbi	0x1f, 0	; 31
    2fe0:	01 97       	sbiw	r24, 0x01	; 1
    2fe2:	00 b4       	in	r0, 0x20	; 32
    2fe4:	02 16       	cp	r0, r18
    2fe6:	39 f0       	breq	.+14     	; 0x2ff6 <eeprom_update_r18+0x20>
    2fe8:	1f ba       	out	0x1f, r1	; 31
    2fea:	20 bd       	out	0x20, r18	; 32
    2fec:	0f b6       	in	r0, 0x3f	; 63
    2fee:	f8 94       	cli
    2ff0:	fa 9a       	sbi	0x1f, 2	; 31
    2ff2:	f9 9a       	sbi	0x1f, 1	; 31
    2ff4:	0f be       	out	0x3f, r0	; 63
    2ff6:	08 95       	ret

00002ff8 <__muluhisi3>:
    2ff8:	40 d0       	rcall	.+128    	; 0x307a <__umulhisi3>
    2ffa:	a5 9f       	mul	r26, r21
    2ffc:	90 0d       	add	r25, r0
    2ffe:	b4 9f       	mul	r27, r20
    3000:	90 0d       	add	r25, r0
    3002:	a4 9f       	mul	r26, r20
    3004:	80 0d       	add	r24, r0
    3006:	91 1d       	adc	r25, r1
    3008:	11 24       	eor	r1, r1
    300a:	08 95       	ret

0000300c <__prologue_saves__>:
    300c:	2f 92       	push	r2
    300e:	3f 92       	push	r3
    3010:	4f 92       	push	r4
    3012:	5f 92       	push	r5
    3014:	6f 92       	push	r6
    3016:	7f 92       	push	r7
    3018:	8f 92       	push	r8
    301a:	9f 92       	push	r9
    301c:	af 92       	push	r10
    301e:	bf 92       	push	r11
    3020:	cf 92       	push	r12
    3022:	df 92       	push	r13
    3024:	ef 92       	push	r14
    3026:	ff 92       	push	r15
    3028:	0f 93       	push	r16
    302a:	1f 93       	push	r17
    302c:	cf 93       	push	r28
    302e:	df 93       	push	r29
    3030:	cd b7       	in	r28, 0x3d	; 61
    3032:	de b7       	in	r29, 0x3e	; 62
    3034:	ca 1b       	sub	r28, r26
    3036:	db 0b       	sbc	r29, r27
    3038:	0f b6       	in	r0, 0x3f	; 63
    303a:	f8 94       	cli
    303c:	de bf       	out	0x3e, r29	; 62
    303e:	0f be       	out	0x3f, r0	; 63
    3040:	cd bf       	out	0x3d, r28	; 61
    3042:	09 94       	ijmp

00003044 <__epilogue_restores__>:
    3044:	2a 88       	ldd	r2, Y+18	; 0x12
    3046:	39 88       	ldd	r3, Y+17	; 0x11
    3048:	48 88       	ldd	r4, Y+16	; 0x10
    304a:	5f 84       	ldd	r5, Y+15	; 0x0f
    304c:	6e 84       	ldd	r6, Y+14	; 0x0e
    304e:	7d 84       	ldd	r7, Y+13	; 0x0d
    3050:	8c 84       	ldd	r8, Y+12	; 0x0c
    3052:	9b 84       	ldd	r9, Y+11	; 0x0b
    3054:	aa 84       	ldd	r10, Y+10	; 0x0a
    3056:	b9 84       	ldd	r11, Y+9	; 0x09
    3058:	c8 84       	ldd	r12, Y+8	; 0x08
    305a:	df 80       	ldd	r13, Y+7	; 0x07
    305c:	ee 80       	ldd	r14, Y+6	; 0x06
    305e:	fd 80       	ldd	r15, Y+5	; 0x05
    3060:	0c 81       	ldd	r16, Y+4	; 0x04
    3062:	1b 81       	ldd	r17, Y+3	; 0x03
    3064:	aa 81       	ldd	r26, Y+2	; 0x02
    3066:	b9 81       	ldd	r27, Y+1	; 0x01
    3068:	ce 0f       	add	r28, r30
    306a:	d1 1d       	adc	r29, r1
    306c:	0f b6       	in	r0, 0x3f	; 63
    306e:	f8 94       	cli
    3070:	de bf       	out	0x3e, r29	; 62
    3072:	0f be       	out	0x3f, r0	; 63
    3074:	cd bf       	out	0x3d, r28	; 61
    3076:	ed 01       	movw	r28, r26
    3078:	08 95       	ret

0000307a <__umulhisi3>:
    307a:	a2 9f       	mul	r26, r18
    307c:	b0 01       	movw	r22, r0
    307e:	b3 9f       	mul	r27, r19
    3080:	c0 01       	movw	r24, r0
    3082:	a3 9f       	mul	r26, r19
    3084:	70 0d       	add	r23, r0
    3086:	81 1d       	adc	r24, r1
    3088:	11 24       	eor	r1, r1
    308a:	91 1d       	adc	r25, r1
    308c:	b2 9f       	mul	r27, r18
    308e:	70 0d       	add	r23, r0
    3090:	81 1d       	adc	r24, r1
    3092:	11 24       	eor	r1, r1
    3094:	91 1d       	adc	r25, r1
    3096:	08 95       	ret

00003098 <_exit>:
    3098:	f8 94       	cli

0000309a <__stop_program>:
    309a:	ff cf       	rjmp	.-2      	; 0x309a <__stop_program>
